
image.elf:     file format elf32-bigmips


Disassembly of section .text:

40000000 <_entry>:
40000000:	3c054000 	lui	a1,0x4000
40000004:	24a542a0 	addiu	a1,a1,17056
40000008:	3c044008 	lui	a0,0x4008
4000000c:	2484f660 	addiu	a0,a0,-2464
40000010:	3c1c4001 	lui	gp,0x4001
40000014:	279cc290 	addiu	gp,gp,-15728
40000018:	3c1d5000 	lui	sp,0x5000
4000001c:	27bdfffc 	addiu	sp,sp,-4
40000020:	aca00000 	sw	zero,0(a1)
40000024:	00a4182a 	slt	v1,a1,a0
40000028:	24a50004 	addiu	a1,a1,4
4000002c:	1460fffc 	bnez	v1,40000020 <_entry+0x20>
40000030:	00000000 	nop
40000034:	3c1b4000 	lui	k1,0x4000
40000038:	277b0100 	addiu	k1,k1,256
4000003c:	3c1af000 	lui	k0,0xf000
40000040:	af5b0000 	sw	k1,0(k0)
40000044:	0c0005cb 	jal	4000172c <main>
40000048:	00000000 	nop
4000004c:	3c1ae000 	lui	k0,0xe000
40000050:	af400000 	sw	zero,0(k0)
40000054:	1000ffff 	b	40000054 <_entry+0x54>
40000058:	00000000 	nop
	...

40000100 <_isr>:
40000100:	00000000 	nop
40000104:	27bdff98 	addiu	sp,sp,-104
40000108:	afa10010 	sw	at,16(sp)
4000010c:	afa20014 	sw	v0,20(sp)
40000110:	afa30018 	sw	v1,24(sp)
40000114:	afa4001c 	sw	a0,28(sp)
40000118:	afa50020 	sw	a1,32(sp)
4000011c:	afa60024 	sw	a2,36(sp)
40000120:	afa70028 	sw	a3,40(sp)
40000124:	afa8002c 	sw	t0,44(sp)
40000128:	afa90030 	sw	t1,48(sp)
4000012c:	afaa0034 	sw	t2,52(sp)
40000130:	afab0038 	sw	t3,56(sp)
40000134:	afac003c 	sw	t4,60(sp)
40000138:	afad0040 	sw	t5,64(sp)
4000013c:	afae0044 	sw	t6,68(sp)
40000140:	afaf0048 	sw	t7,72(sp)
40000144:	afb8004c 	sw	t8,76(sp)
40000148:	afb90050 	sw	t9,80(sp)
4000014c:	afbf0054 	sw	ra,84(sp)
40000150:	3c1af000 	lui	k0,0xf000
40000154:	375a0040 	ori	k0,k0,0x40
40000158:	8f5a0000 	lw	k0,0(k0)
4000015c:	275afffc 	addiu	k0,k0,-4
40000160:	afba0058 	sw	k0,88(sp)
40000164:	0000d810 	mfhi	k1
40000168:	afbb005c 	sw	k1,92(sp)
4000016c:	0000d812 	mflo	k1
40000170:	afbb0060 	sw	k1,96(sp)
40000174:	3c05f000 	lui	a1,0xf000
40000178:	8ca40010 	lw	a0,16(a1)
4000017c:	8ca60020 	lw	a2,32(a1)
40000180:	00862024 	and	a0,a0,a2
40000184:	0c000249 	jal	40000924 <_irq_handler>
40000188:	27a50000 	addiu	a1,sp,0
4000018c:	8fa10010 	lw	at,16(sp)
40000190:	8fa20014 	lw	v0,20(sp)
40000194:	8fa30018 	lw	v1,24(sp)
40000198:	8fa4001c 	lw	a0,28(sp)
4000019c:	8fa50020 	lw	a1,32(sp)
400001a0:	8fa60024 	lw	a2,36(sp)
400001a4:	8fa70028 	lw	a3,40(sp)
400001a8:	8fa8002c 	lw	t0,44(sp)
400001ac:	8fa90030 	lw	t1,48(sp)
400001b0:	8faa0034 	lw	t2,52(sp)
400001b4:	8fab0038 	lw	t3,56(sp)
400001b8:	8fac003c 	lw	t4,60(sp)
400001bc:	8fad0040 	lw	t5,64(sp)
400001c0:	8fae0044 	lw	t6,68(sp)
400001c4:	8faf0048 	lw	t7,72(sp)
400001c8:	8fb8004c 	lw	t8,76(sp)
400001cc:	8fb90050 	lw	t9,80(sp)
400001d0:	8fbf0054 	lw	ra,84(sp)
400001d4:	8fba0058 	lw	k0,88(sp)
400001d8:	8fbb005c 	lw	k1,92(sp)
400001dc:	03600011 	mthi	k1
400001e0:	8fbb0060 	lw	k1,96(sp)
400001e4:	03600013 	mtlo	k1
400001e8:	27bd0068 	addiu	sp,sp,104
400001ec:	341b0001 	li	k1,0x1
400001f0:	3c1af000 	lui	k0,0xf000
400001f4:	375a0030 	ori	k0,k0,0x30
400001f8:	af5b0000 	sw	k1,0(k0)
400001fc:	8fbafff0 	lw	k0,-16(sp)
40000200:	03400008 	jr	k0
40000204:	00000000 	nop

40000208 <_interrupt_set>:
40000208:	3c03f000 	lui	v1,0xf000
4000020c:	34630030 	ori	v1,v1,0x30
40000210:	8c620000 	lw	v0,0(v1)
40000214:	ac640000 	sw	a0,0(v1)
40000218:	03e00008 	jr	ra
4000021c:	00000000 	nop

40000220 <_context_save>:
40000220:	ac900000 	sw	s0,0(a0)
40000224:	ac910004 	sw	s1,4(a0)
40000228:	ac920008 	sw	s2,8(a0)
4000022c:	ac93000c 	sw	s3,12(a0)
40000230:	ac940010 	sw	s4,16(a0)
40000234:	ac950014 	sw	s5,20(a0)
40000238:	ac960018 	sw	s6,24(a0)
4000023c:	ac97001c 	sw	s7,28(a0)
40000240:	ac9e0020 	sw	s8,32(a0)
40000244:	ac9c0024 	sw	gp,36(a0)
40000248:	ac9d0028 	sw	sp,40(a0)
4000024c:	ac9f002c 	sw	ra,44(a0)
40000250:	34020000 	li	v0,0x0
40000254:	03e00008 	jr	ra
40000258:	00000000 	nop

4000025c <_context_restore>:
4000025c:	8c900000 	lw	s0,0(a0)
40000260:	8c910004 	lw	s1,4(a0)
40000264:	8c920008 	lw	s2,8(a0)
40000268:	8c93000c 	lw	s3,12(a0)
4000026c:	8c940010 	lw	s4,16(a0)
40000270:	8c950014 	lw	s5,20(a0)
40000274:	8c960018 	lw	s6,24(a0)
40000278:	8c97001c 	lw	s7,28(a0)
4000027c:	8c9e0020 	lw	s8,32(a0)
40000280:	8c9c0024 	lw	gp,36(a0)
40000284:	8c9d0028 	lw	sp,40(a0)
40000288:	8c9f002c 	lw	ra,44(a0)
4000028c:	341b0001 	li	k1,0x1
40000290:	3c1af000 	lui	k0,0xf000
40000294:	375a0030 	ori	k0,k0,0x30
40000298:	34a20000 	ori	v0,a1,0x0
4000029c:	af5b0000 	sw	k1,0(k0)
400002a0:	03e00008 	jr	ra
400002a4:	00000000 	nop

400002a8 <_idletask>:
400002a8:	080000aa 	j	400002a8 <_idletask>
400002ac:	00000000 	nop

400002b0 <putchar>:
400002b0:	3c03e103 	lui	v1,0xe103
400002b4:	8c620400 	lw	v0,1024(v1)
400002b8:	30420002 	andi	v0,v0,0x2
400002bc:	1440fffd 	bnez	v0,400002b4 <putchar+0x4>
400002c0:	3c02e103 	lui	v0,0xe103
400002c4:	ac444000 	sw	a0,16384(v0)
400002c8:	03e00008 	jr	ra
400002cc:	00000000 	nop

400002d0 <dputchar>:
400002d0:	3c02f000 	lui	v0,0xf000
400002d4:	ac4400d0 	sw	a0,208(v0)
400002d8:	03e00008 	jr	ra
400002dc:	00000000 	nop

400002e0 <delay_ms>:
400002e0:	3c02e102 	lui	v0,0xe102
400002e4:	8c424000 	lw	v0,16384(v0)
400002e8:	27bdffc8 	addiu	sp,sp,-56
400002ec:	afb2002c 	sw	s2,44(sp)
400002f0:	3c12017d 	lui	s2,0x17d
400002f4:	afa20018 	sw	v0,24(sp)
400002f8:	afb10028 	sw	s1,40(sp)
400002fc:	afb00024 	sw	s0,36(sp)
40000300:	afa00010 	sw	zero,16(sp)
40000304:	afbf0034 	sw	ra,52(sp)
40000308:	afb30030 	sw	s3,48(sp)
4000030c:	00808025 	move	s0,a0
40000310:	3c11e102 	lui	s1,0xe102
40000314:	26527840 	addiu	s2,s2,30784
40000318:	afa00014 	sw	zero,20(sp)
4000031c:	080000d6 	j	40000358 <delay_ms+0x78>
40000320:	00000000 	nop
40000324:	8fa3001c 	lw	v1,28(sp)
40000328:	8fa40018 	lw	a0,24(sp)
4000032c:	8fa20014 	lw	v0,20(sp)
40000330:	00621021 	addu	v0,v1,v0
40000334:	00521021 	addu	v0,v0,s2
40000338:	00441023 	subu	v0,v0,a0
4000033c:	afa20014 	sw	v0,20(sp)
40000340:	8fa2001c 	lw	v0,28(sp)
40000344:	afa20018 	sw	v0,24(sp)
40000348:	8fa20014 	lw	v0,20(sp)
4000034c:	2c4261a8 	sltiu	v0,v0,25000
40000350:	10400018 	beqz	v0,400003b4 <delay_ms+0xd4>
40000354:	00000000 	nop
40000358:	8fa20010 	lw	v0,16(sp)
4000035c:	0050102b 	sltu	v0,v0,s0
40000360:	10400022 	beqz	v0,400003ec <delay_ms+0x10c>
40000364:	8fbf0034 	lw	ra,52(sp)
40000368:	8e224000 	lw	v0,16384(s1)
4000036c:	afa2001c 	sw	v0,28(sp)
40000370:	8fa2001c 	lw	v0,28(sp)
40000374:	8fa30018 	lw	v1,24(sp)
40000378:	0043102b 	sltu	v0,v0,v1
4000037c:	1440ffe9 	bnez	v0,40000324 <delay_ms+0x44>
40000380:	00000000 	nop
40000384:	8fa2001c 	lw	v0,28(sp)
40000388:	8fa40018 	lw	a0,24(sp)
4000038c:	8fa30014 	lw	v1,20(sp)
40000390:	00621021 	addu	v0,v1,v0
40000394:	00441023 	subu	v0,v0,a0
40000398:	afa20014 	sw	v0,20(sp)
4000039c:	8fa2001c 	lw	v0,28(sp)
400003a0:	afa20018 	sw	v0,24(sp)
400003a4:	8fa20014 	lw	v0,20(sp)
400003a8:	2c4261a8 	sltiu	v0,v0,25000
400003ac:	1440ffea 	bnez	v0,40000358 <delay_ms+0x78>
400003b0:	00000000 	nop
400003b4:	8fa40014 	lw	a0,20(sp)
400003b8:	8fb30010 	lw	s3,16(sp)
400003bc:	0c0005b9 	jal	400016e4 <__udivsi3>
400003c0:	240561a8 	li	a1,25000
400003c4:	00531021 	addu	v0,v0,s3
400003c8:	afa20010 	sw	v0,16(sp)
400003cc:	8fa40014 	lw	a0,20(sp)
400003d0:	0c0005bb 	jal	400016ec <__umodsi3>
400003d4:	240561a8 	li	a1,25000
400003d8:	afa20014 	sw	v0,20(sp)
400003dc:	8fa20010 	lw	v0,16(sp)
400003e0:	0050102b 	sltu	v0,v0,s0
400003e4:	1440ffe0 	bnez	v0,40000368 <delay_ms+0x88>
400003e8:	8fbf0034 	lw	ra,52(sp)
400003ec:	8fb30030 	lw	s3,48(sp)
400003f0:	8fb2002c 	lw	s2,44(sp)
400003f4:	8fb10028 	lw	s1,40(sp)
400003f8:	8fb00024 	lw	s0,36(sp)
400003fc:	03e00008 	jr	ra
40000400:	27bd0038 	addiu	sp,sp,56

40000404 <_hardware_init>:
40000404:	3c02e103 	lui	v0,0xe103
40000408:	240301b2 	li	v1,434
4000040c:	ac434010 	sw	v1,16400(v0)
40000410:	3c03e100 	lui	v1,0xe100
40000414:	ac404000 	sw	zero,16384(v0)
40000418:	8c624000 	lw	v0,16384(v1)
4000041c:	34420150 	ori	v0,v0,0x150
40000420:	ac624000 	sw	v0,16384(v1)
40000424:	03e00008 	jr	ra
40000428:	00000000 	nop

4000042c <_vm_init>:
4000042c:	3c044000 	lui	a0,0x4000
40000430:	27bdffe8 	addiu	sp,sp,-24
40000434:	afbf0014 	sw	ra,20(sp)
40000438:	0c0002d0 	jal	40000b40 <kprintf>
4000043c:	24843618 	addiu	a0,a0,13848
40000440:	8fbf0014 	lw	ra,20(sp)
40000444:	3c044000 	lui	a0,0x4000
40000448:	3c050007 	lui	a1,0x7
4000044c:	24845524 	addiu	a0,a0,21796
40000450:	34a5a120 	ori	a1,a1,0xa120
40000454:	080006e2 	j	40001b88 <heapinit>
40000458:	27bd0018 	addiu	sp,sp,24

4000045c <_sched_init>:
4000045c:	3c044000 	lui	a0,0x4000
40000460:	080002d0 	j	40000b40 <kprintf>
40000464:	2484362c 	addiu	a0,a0,13868

40000468 <timer0b_handler>:
40000468:	080008dc 	j	40002370 <dispatch_isr>
4000046c:	00002025 	move	a0,zero

40000470 <timer1ctc_handler>:
40000470:	080008dc 	j	40002370 <dispatch_isr>
40000474:	00002025 	move	a0,zero

40000478 <_timer_init>:
40000478:	3c044000 	lui	a0,0x4000
4000047c:	27bdffe8 	addiu	sp,sp,-24
40000480:	afbf0014 	sw	ra,20(sp)
40000484:	0c0002d0 	jal	40000b40 <kprintf>
40000488:	24843640 	addiu	a0,a0,13888
4000048c:	3c03e102 	lui	v1,0xe102
40000490:	8c620c00 	lw	v0,3072(v1)
40000494:	8fbf0014 	lw	ra,20(sp)
40000498:	34420002 	ori	v0,v0,0x2
4000049c:	ac620c00 	sw	v0,3072(v1)
400004a0:	03e00008 	jr	ra
400004a4:	27bd0018 	addiu	sp,sp,24

400004a8 <_irq_init>:
400004a8:	3c044000 	lui	a0,0x4000
400004ac:	27bdffe8 	addiu	sp,sp,-24
400004b0:	afbf0014 	sw	ra,20(sp)
400004b4:	0c0002d0 	jal	40000b40 <kprintf>
400004b8:	24843654 	addiu	a0,a0,13908
400004bc:	8fbf0014 	lw	ra,20(sp)
400004c0:	3c02f000 	lui	v0,0xf000
400004c4:	24030001 	li	v1,1
400004c8:	ac430020 	sw	v1,32(v0)
400004cc:	ac430030 	sw	v1,48(v0)
400004d0:	03e00008 	jr	ra
400004d4:	27bd0018 	addiu	sp,sp,24

400004d8 <_device_init>:
400004d8:	3c044000 	lui	a0,0x4000
400004dc:	080002d0 	j	40000b40 <kprintf>
400004e0:	24843668 	addiu	a0,a0,13928

400004e4 <_task_init>:
400004e4:	3c044000 	lui	a0,0x4000
400004e8:	27bdffe0 	addiu	sp,sp,-32
400004ec:	24843680 	addiu	a0,a0,13952
400004f0:	afbf001c 	sw	ra,28(sp)
400004f4:	0c0002d0 	jal	40000b40 <kprintf>
400004f8:	afb00018 	sw	s0,24(sp)
400004fc:	3c024000 	lui	v0,0x4000
40000500:	24423fb4 	addiu	v0,v0,16308
40000504:	afa20010 	sw	v0,16(sp)
40000508:	3c044000 	lui	a0,0x4000
4000050c:	24020400 	li	v0,1024
40000510:	00003025 	move	a2,zero
40000514:	00003825 	move	a3,zero
40000518:	248402a8 	addiu	a0,a0,680
4000051c:	00002825 	move	a1,zero
40000520:	0c000b23 	jal	40002c8c <hf_spawn>
40000524:	afa20014 	sw	v0,20(sp)
40000528:	0c000899 	jal	40002264 <app_main>
4000052c:	3c104008 	lui	s0,0x4008
40000530:	3c024008 	lui	v0,0x4008
40000534:	8c45f674 	lw	a1,-2444(v0)
40000538:	3c044000 	lui	a0,0x4000
4000053c:	0c0002d0 	jal	40000b40 <kprintf>
40000540:	24843694 	addiu	a0,a0,13972
40000544:	3c044000 	lui	a0,0x4000
40000548:	0c0002d0 	jal	40000b40 <kprintf>
4000054c:	248436b4 	addiu	a0,a0,14004
40000550:	3c024000 	lui	v0,0x4000
40000554:	00002025 	move	a0,zero
40000558:	244242dc 	addiu	v0,v0,17116
4000055c:	0c000786 	jal	40001e18 <hf_schedlock>
40000560:	ae02f664 	sw	v0,-2460(s0)
40000564:	8e04f664 	lw	a0,-2460(s0)
40000568:	8fbf001c 	lw	ra,28(sp)
4000056c:	8fb00018 	lw	s0,24(sp)
40000570:	24050001 	li	a1,1
40000574:	2484003c 	addiu	a0,a0,60
40000578:	08000097 	j	4000025c <_context_restore>
4000057c:	27bd0020 	addiu	sp,sp,32

40000580 <_set_task_sp>:
40000580:	3084ffff 	andi	a0,a0,0xffff
40000584:	000418c0 	sll	v1,a0,0x3
40000588:	00041140 	sll	v0,a0,0x5
4000058c:	00621021 	addu	v0,v1,v0
40000590:	00442023 	subu	a0,v0,a0
40000594:	00041080 	sll	v0,a0,0x2
40000598:	3c044000 	lui	a0,0x4000
4000059c:	248442dc 	addiu	a0,a0,17116
400005a0:	00442021 	addu	a0,v0,a0
400005a4:	03e00008 	jr	ra
400005a8:	ac850064 	sw	a1,100(a0)

400005ac <_get_task_sp>:
400005ac:	3084ffff 	andi	a0,a0,0xffff
400005b0:	000418c0 	sll	v1,a0,0x3
400005b4:	00041140 	sll	v0,a0,0x5
400005b8:	00621021 	addu	v0,v1,v0
400005bc:	00442023 	subu	a0,v0,a0
400005c0:	00041080 	sll	v0,a0,0x2
400005c4:	3c044000 	lui	a0,0x4000
400005c8:	248442dc 	addiu	a0,a0,17116
400005cc:	00442021 	addu	a0,v0,a0
400005d0:	03e00008 	jr	ra
400005d4:	8c820064 	lw	v0,100(a0)

400005d8 <_set_task_tp>:
400005d8:	3084ffff 	andi	a0,a0,0xffff
400005dc:	000418c0 	sll	v1,a0,0x3
400005e0:	00041140 	sll	v0,a0,0x5
400005e4:	00621021 	addu	v0,v1,v0
400005e8:	00442023 	subu	a0,v0,a0
400005ec:	00041080 	sll	v0,a0,0x2
400005f0:	3c044000 	lui	a0,0x4000
400005f4:	248442dc 	addiu	a0,a0,17116
400005f8:	00442021 	addu	a0,v0,a0
400005fc:	03e00008 	jr	ra
40000600:	ac850068 	sw	a1,104(a0)

40000604 <_read_us>:
40000604:	3c064000 	lui	a2,0x4000
40000608:	8cc242ac 	lw	v0,17068(a2)
4000060c:	27bdffe8 	addiu	sp,sp,-24
40000610:	3c03e102 	lui	v1,0xe102
40000614:	14400014 	bnez	v0,40000668 <_read_us+0x64>
40000618:	afbf0014 	sw	ra,20(sp)
4000061c:	8c624000 	lw	v0,16384(v1)
40000620:	3c024000 	lui	v0,0x4000
40000624:	8c4242a8 	lw	v0,17064(v0)
40000628:	8c634000 	lw	v1,16384(v1)
4000062c:	3c05e102 	lui	a1,0xe102
40000630:	8ca74000 	lw	a3,16384(a1)
40000634:	3c034000 	lui	v1,0x4000
40000638:	00402025 	move	a0,v0
4000063c:	acc742ac 	sw	a3,17068(a2)
40000640:	8ca84000 	lw	t0,16384(a1)
40000644:	24070019 	li	a3,25
40000648:	00003025 	move	a2,zero
4000064c:	01002825 	move	a1,t0
40000650:	ac6242a0 	sw	v0,17056(v1)
40000654:	0c0005bd 	jal	400016f4 <__udivdi3>
40000658:	ac6842a4 	sw	t0,17060(v1)
4000065c:	8fbf0014 	lw	ra,20(sp)
40000660:	03e00008 	jr	ra
40000664:	27bd0018 	addiu	sp,sp,24
40000668:	8c634000 	lw	v1,16384(v1)
4000066c:	0062102b 	sltu	v0,v1,v0
40000670:	10400005 	beqz	v0,40000688 <_read_us+0x84>
40000674:	3c034000 	lui	v1,0x4000
40000678:	8c6242a8 	lw	v0,17064(v1)
4000067c:	24420001 	addiu	v0,v0,1
40000680:	0800018b 	j	4000062c <_read_us+0x28>
40000684:	ac6242a8 	sw	v0,17064(v1)
40000688:	3c024000 	lui	v0,0x4000
4000068c:	0800018b 	j	4000062c <_read_us+0x28>
40000690:	8c4242a8 	lw	v0,17064(v0)

40000694 <_timer_reset>:
40000694:	27bdffe8 	addiu	sp,sp,-24
40000698:	afbf0014 	sw	ra,20(sp)
4000069c:	0c000181 	jal	40000604 <_read_us>
400006a0:	00000000 	nop
400006a4:	3c044000 	lui	a0,0x4000
400006a8:	8c8242b0 	lw	v0,17072(a0)
400006ac:	8fbf0014 	lw	ra,20(sp)
400006b0:	3c054000 	lui	a1,0x4000
400006b4:	00621023 	subu	v0,v1,v0
400006b8:	aca342b4 	sw	v1,17076(a1)
400006bc:	3c054008 	lui	a1,0x4008
400006c0:	aca2f65c 	sw	v0,-2468(a1)
400006c4:	ac8342b0 	sw	v1,17072(a0)
400006c8:	03e00008 	jr	ra
400006cc:	27bd0018 	addiu	sp,sp,24

400006d0 <_panic>:
400006d0:	3c02e000 	lui	v0,0xe000
400006d4:	ac400000 	sw	zero,0(v0)
400006d8:	03e00008 	jr	ra
400006dc:	00000000 	nop

400006e0 <dummy_handler>:
400006e0:	3c044000 	lui	a0,0x4000
400006e4:	080002d0 	j	40000b40 <kprintf>
400006e8:	248436d0 	addiu	a0,a0,14032

400006ec <irq0_handler>:
400006ec:	27bdffc8 	addiu	sp,sp,-56
400006f0:	afb40020 	sw	s4,32(sp)
400006f4:	afb3001c 	sw	s3,28(sp)
400006f8:	afb10014 	sw	s1,20(sp)
400006fc:	afb00010 	sw	s0,16(sp)
40000700:	afbf0034 	sw	ra,52(sp)
40000704:	afbe0030 	sw	s8,48(sp)
40000708:	afb7002c 	sw	s7,44(sp)
4000070c:	afb60028 	sw	s6,40(sp)
40000710:	afb50024 	sw	s5,36(sp)
40000714:	afb20018 	sw	s2,24(sp)
40000718:	24110020 	li	s1,32
4000071c:	24100001 	li	s0,1
40000720:	3c13e100 	lui	s3,0xe100
40000724:	3c14e102 	lui	s4,0xe102
40000728:	8e620400 	lw	v0,1024(s3)
4000072c:	02021024 	and	v0,s0,v0
40000730:	2c430021 	sltiu	v1,v0,33
40000734:	10600007 	beqz	v1,40000754 <irq0_handler+0x68>
40000738:	3c034000 	lui	v1,0x4000
4000073c:	00021080 	sll	v0,v0,0x2
40000740:	2463370c 	addiu	v1,v1,14092
40000744:	00621021 	addu	v0,v1,v0
40000748:	8c420000 	lw	v0,0(v0)
4000074c:	00400008 	jr	v0
40000750:	00000000 	nop
40000754:	8e650400 	lw	a1,1024(s3)
40000758:	3c044000 	lui	a0,0x4000
4000075c:	0c0002d0 	jal	40000b40 <kprintf>
40000760:	248436d8 	addiu	a0,a0,14040
40000764:	8e620400 	lw	v0,1024(s3)
40000768:	10400004 	beqz	v0,4000077c <irq0_handler+0x90>
4000076c:	00108040 	sll	s0,s0,0x1
40000770:	2631ffff 	addiu	s1,s1,-1
40000774:	1620ffec 	bnez	s1,40000728 <irq0_handler+0x3c>
40000778:	00000000 	nop
4000077c:	8fbf0034 	lw	ra,52(sp)
40000780:	8fbe0030 	lw	s8,48(sp)
40000784:	8fb7002c 	lw	s7,44(sp)
40000788:	8fb60028 	lw	s6,40(sp)
4000078c:	8fb50024 	lw	s5,36(sp)
40000790:	8fb40020 	lw	s4,32(sp)
40000794:	8fb3001c 	lw	s3,28(sp)
40000798:	8fb20018 	lw	s2,24(sp)
4000079c:	8fb10014 	lw	s1,20(sp)
400007a0:	8fb00010 	lw	s0,16(sp)
400007a4:	03e00008 	jr	ra
400007a8:	27bd0038 	addiu	sp,sp,56
400007ac:	3c04e101 	lui	a0,0xe101
400007b0:	8c820400 	lw	v0,1024(a0)
400007b4:	8c830800 	lw	v1,2048(a0)
400007b8:	8c850c00 	lw	a1,3072(a0)
400007bc:	3c044000 	lui	a0,0x4000
400007c0:	00621026 	xor	v0,v1,v0
400007c4:	24974268 	addiu	s7,a0,17000
400007c8:	0045b024 	and	s6,v0,a1
400007cc:	0000f025 	move	s8,zero
400007d0:	24150001 	li	s5,1
400007d4:	0800020c 	j	40000830 <irq0_handler+0x144>
400007d8:	3c12e101 	lui	s2,0xe101
400007dc:	13c0003d 	beqz	s8,400008d4 <irq0_handler+0x1e8>
400007e0:	24020002 	li	v0,2
400007e4:	13c20045 	beq	s8,v0,400008fc <irq0_handler+0x210>
400007e8:	24030003 	li	v1,3
400007ec:	17c30009 	bne	s8,v1,40000814 <irq0_handler+0x128>
400007f0:	00000000 	nop
400007f4:	8e494c20 	lw	t1,19488(s2)
400007f8:	8e464c30 	lw	a2,19504(s2)
400007fc:	8e454c40 	lw	a1,19520(s2)
40000800:	8e484c30 	lw	t0,19504(s2)
40000804:	00c93026 	xor	a2,a2,t1
40000808:	00c52824 	and	a1,a2,a1
4000080c:	00a82826 	xor	a1,a1,t0
40000810:	ae454c30 	sw	a1,19504(s2)
40000814:	8ee50000 	lw	a1,0(s7)
40000818:	00a0f809 	jalr	a1
4000081c:	00000000 	nop
40000820:	0016b042 	srl	s6,s6,0x1
40000824:	27de0001 	addiu	s8,s8,1
40000828:	12c0ffce 	beqz	s6,40000764 <irq0_handler+0x78>
4000082c:	26f70004 	addiu	s7,s7,4
40000830:	32c50001 	andi	a1,s6,0x1
40000834:	10a0fffa 	beqz	a1,40000820 <irq0_handler+0x134>
40000838:	00000000 	nop
4000083c:	17d5ffe7 	bne	s8,s5,400007dc <irq0_handler+0xf0>
40000840:	00000000 	nop
40000844:	8e494420 	lw	t1,17440(s2)
40000848:	8e464430 	lw	a2,17456(s2)
4000084c:	8e454440 	lw	a1,17472(s2)
40000850:	8e484430 	lw	t0,17456(s2)
40000854:	00c93026 	xor	a2,a2,t1
40000858:	00c52824 	and	a1,a2,a1
4000085c:	00a82826 	xor	a1,a1,t0
40000860:	ae454430 	sw	a1,17456(s2)
40000864:	08000206 	j	40000818 <irq0_handler+0x12c>
40000868:	8ee50000 	lw	a1,0(s7)
4000086c:	8e950400 	lw	s5,1024(s4)
40000870:	8e820800 	lw	v0,2048(s4)
40000874:	8e830c00 	lw	v1,3072(s4)
40000878:	3c044000 	lui	a0,0x4000
4000087c:	00551026 	xor	v0,v0,s5
40000880:	249e4228 	addiu	s8,a0,16936
40000884:	0043a824 	and	s5,v0,v1
40000888:	0000b825 	move	s7,zero
4000088c:	08000229 	j	400008a4 <irq0_handler+0x1b8>
40000890:	24120001 	li	s2,1
40000894:	0015a842 	srl	s5,s5,0x1
40000898:	26f70001 	addiu	s7,s7,1
4000089c:	12a0ffb1 	beqz	s5,40000764 <irq0_handler+0x78>
400008a0:	27de0004 	addiu	s8,s8,4
400008a4:	32a20001 	andi	v0,s5,0x1
400008a8:	1040fffa 	beqz	v0,40000894 <irq0_handler+0x1a8>
400008ac:	00000000 	nop
400008b0:	8e840800 	lw	a0,2048(s4)
400008b4:	02f21004 	sllv	v0,s2,s7
400008b8:	8fc30000 	lw	v1,0(s8)
400008bc:	00441026 	xor	v0,v0,a0
400008c0:	ae820800 	sw	v0,2048(s4)
400008c4:	0060f809 	jalr	v1
400008c8:	0015a842 	srl	s5,s5,0x1
400008cc:	08000227 	j	4000089c <irq0_handler+0x1b0>
400008d0:	26f70001 	addiu	s7,s7,1
400008d4:	8e494020 	lw	t1,16416(s2)
400008d8:	8e464030 	lw	a2,16432(s2)
400008dc:	8e454040 	lw	a1,16448(s2)
400008e0:	8e484030 	lw	t0,16432(s2)
400008e4:	00c93026 	xor	a2,a2,t1
400008e8:	00c52824 	and	a1,a2,a1
400008ec:	00a82826 	xor	a1,a1,t0
400008f0:	ae454030 	sw	a1,16432(s2)
400008f4:	08000206 	j	40000818 <irq0_handler+0x12c>
400008f8:	8ee50000 	lw	a1,0(s7)
400008fc:	8e494820 	lw	t1,18464(s2)
40000900:	8e464830 	lw	a2,18480(s2)
40000904:	8e454840 	lw	a1,18496(s2)
40000908:	8e484830 	lw	t0,18480(s2)
4000090c:	00c93026 	xor	a2,a2,t1
40000910:	00c52824 	and	a1,a2,a1
40000914:	00a82826 	xor	a1,a1,t0
40000918:	ae454830 	sw	a1,18480(s2)
4000091c:	08000206 	j	40000818 <irq0_handler+0x12c>
40000920:	8ee50000 	lw	a1,0(s7)

40000924 <_irq_handler>:
40000924:	27bdffe0 	addiu	sp,sp,-32
40000928:	afbf001c 	sw	ra,28(sp)
4000092c:	afb10018 	sw	s1,24(sp)
40000930:	afb00014 	sw	s0,20(sp)
40000934:	0c000181 	jal	40000604 <_read_us>
40000938:	00808025 	move	s0,a0
4000093c:	3c044000 	lui	a0,0x4000
40000940:	00603025 	move	a2,v1
40000944:	24843700 	addiu	a0,a0,14080
40000948:	0c000346 	jal	40000d18 <dprintf>
4000094c:	02002825 	move	a1,s0
40000950:	3c024008 	lui	v0,0x4008
40000954:	2442f644 	addiu	v0,v0,-2492
40000958:	8c430014 	lw	v1,20(v0)
4000095c:	3c114000 	lui	s1,0x4000
40000960:	26314278 	addiu	s1,s1,17016
40000964:	24630001 	addiu	v1,v1,1
40000968:	ac430014 	sw	v1,20(v0)
4000096c:	32020001 	andi	v0,s0,0x1
40000970:	10400006 	beqz	v0,4000098c <_irq_handler+0x68>
40000974:	00108042 	srl	s0,s0,0x1
40000978:	8e220000 	lw	v0,0(s1)
4000097c:	10400003 	beqz	v0,4000098c <_irq_handler+0x68>
40000980:	00000000 	nop
40000984:	0040f809 	jalr	v0
40000988:	00000000 	nop
4000098c:	1600fff7 	bnez	s0,4000096c <_irq_handler+0x48>
40000990:	26310004 	addiu	s1,s1,4
40000994:	8fbf001c 	lw	ra,28(sp)
40000998:	8fb10018 	lw	s1,24(sp)
4000099c:	8fb00014 	lw	s0,20(sp)
400009a0:	03e00008 	jr	ra
400009a4:	27bd0020 	addiu	sp,sp,32

400009a8 <kitoa.part.0>:
400009a8:	27bdffd0 	addiu	sp,sp,-48
400009ac:	24020010 	li	v0,16
400009b0:	afb30020 	sw	s3,32(sp)
400009b4:	afb00014 	sw	s0,20(sp)
400009b8:	afbf002c 	sw	ra,44(sp)
400009bc:	afb50028 	sw	s5,40(sp)
400009c0:	afb40024 	sw	s4,36(sp)
400009c4:	afb2001c 	sw	s2,28(sp)
400009c8:	afb10018 	sw	s1,24(sp)
400009cc:	00a09825 	move	s3,a1
400009d0:	10a20035 	beq	a1,v0,40000aa8 <kitoa.part.0+0x100>
400009d4:	00808025 	move	s0,a0
400009d8:	04800045 	bltz	a0,40000af0 <kitoa.part.0+0x148>
400009dc:	00000000 	nop
400009e0:	10800053 	beqz	a0,40000b30 <kitoa.part.0+0x188>
400009e4:	0000a825 	move	s5,zero
400009e8:	3c144000 	lui	s4,0x4000
400009ec:	3c124000 	lui	s2,0x4000
400009f0:	265242d6 	addiu	s2,s2,17110
400009f4:	2411001e 	li	s1,30
400009f8:	08000282 	j	40000a08 <kitoa.part.0+0x60>
400009fc:	26943790 	addiu	s4,s4,14224
40000a00:	1220000d 	beqz	s1,40000a38 <kitoa.part.0+0x90>
40000a04:	2652ffff 	addiu	s2,s2,-1
40000a08:	02002025 	move	a0,s0
40000a0c:	0c000597 	jal	4000165c <__modsi3>
40000a10:	02602825 	move	a1,s3
40000a14:	02821021 	addu	v0,s4,v0
40000a18:	90420000 	lbu	v0,0(v0)
40000a1c:	02002025 	move	a0,s0
40000a20:	02602825 	move	a1,s3
40000a24:	0c000579 	jal	400015e4 <__divsi3>
40000a28:	a2420000 	sb	v0,0(s2)
40000a2c:	00408025 	move	s0,v0
40000a30:	1440fff3 	bnez	v0,40000a00 <kitoa.part.0+0x58>
40000a34:	2631ffff 	addiu	s1,s1,-1
40000a38:	16a0000d 	bnez	s5,40000a70 <kitoa.part.0+0xc8>
40000a3c:	3c024000 	lui	v0,0x4000
40000a40:	26310001 	addiu	s1,s1,1
40000a44:	244242b8 	addiu	v0,v0,17080
40000a48:	8fbf002c 	lw	ra,44(sp)
40000a4c:	00511021 	addu	v0,v0,s1
40000a50:	8fb50028 	lw	s5,40(sp)
40000a54:	8fb40024 	lw	s4,36(sp)
40000a58:	8fb30020 	lw	s3,32(sp)
40000a5c:	8fb2001c 	lw	s2,28(sp)
40000a60:	8fb10018 	lw	s1,24(sp)
40000a64:	8fb00014 	lw	s0,20(sp)
40000a68:	03e00008 	jr	ra
40000a6c:	27bd0030 	addiu	sp,sp,48
40000a70:	244242b8 	addiu	v0,v0,17080
40000a74:	00511821 	addu	v1,v0,s1
40000a78:	2404002d 	li	a0,45
40000a7c:	a0640000 	sb	a0,0(v1)
40000a80:	8fbf002c 	lw	ra,44(sp)
40000a84:	00511021 	addu	v0,v0,s1
40000a88:	8fb50028 	lw	s5,40(sp)
40000a8c:	8fb40024 	lw	s4,36(sp)
40000a90:	8fb30020 	lw	s3,32(sp)
40000a94:	8fb2001c 	lw	s2,28(sp)
40000a98:	8fb10018 	lw	s1,24(sp)
40000a9c:	8fb00014 	lw	s0,20(sp)
40000aa0:	03e00008 	jr	ra
40000aa4:	27bd0030 	addiu	sp,sp,48
40000aa8:	10800021 	beqz	a0,40000b30 <kitoa.part.0+0x188>
40000aac:	3c144000 	lui	s4,0x4000
40000ab0:	3c034000 	lui	v1,0x4000
40000ab4:	246342d6 	addiu	v1,v1,17110
40000ab8:	2411001e 	li	s1,30
40000abc:	080002b3 	j	40000acc <kitoa.part.0+0x124>
40000ac0:	26943790 	addiu	s4,s4,14224
40000ac4:	1220000d 	beqz	s1,40000afc <kitoa.part.0+0x154>
40000ac8:	2463ffff 	addiu	v1,v1,-1
40000acc:	3202000f 	andi	v0,s0,0xf
40000ad0:	02821021 	addu	v0,s4,v0
40000ad4:	90420000 	lbu	v0,0(v0)
40000ad8:	00108102 	srl	s0,s0,0x4
40000adc:	2631ffff 	addiu	s1,s1,-1
40000ae0:	1600fff8 	bnez	s0,40000ac4 <kitoa.part.0+0x11c>
40000ae4:	a0620000 	sb	v0,0(v1)
40000ae8:	08000290 	j	40000a40 <kitoa.part.0+0x98>
40000aec:	3c024000 	lui	v0,0x4000
40000af0:	00048023 	negu	s0,a0
40000af4:	0800027a 	j	400009e8 <kitoa.part.0+0x40>
40000af8:	24150001 	li	s5,1
40000afc:	8fbf002c 	lw	ra,44(sp)
40000b00:	3c024000 	lui	v0,0x4000
40000b04:	24110001 	li	s1,1
40000b08:	244242b8 	addiu	v0,v0,17080
40000b0c:	00511021 	addu	v0,v0,s1
40000b10:	8fb50028 	lw	s5,40(sp)
40000b14:	8fb40024 	lw	s4,36(sp)
40000b18:	8fb30020 	lw	s3,32(sp)
40000b1c:	8fb2001c 	lw	s2,28(sp)
40000b20:	8fb10018 	lw	s1,24(sp)
40000b24:	8fb00014 	lw	s0,20(sp)
40000b28:	03e00008 	jr	ra
40000b2c:	27bd0030 	addiu	sp,sp,48
40000b30:	3c024000 	lui	v0,0x4000
40000b34:	2411001f 	li	s1,31
40000b38:	08000292 	j	40000a48 <kitoa.part.0+0xa0>
40000b3c:	244242b8 	addiu	v0,v0,17080

40000b40 <kprintf>:
40000b40:	27bdffc0 	addiu	sp,sp,-64
40000b44:	afb70038 	sw	s7,56(sp)
40000b48:	27b70044 	addiu	s7,sp,68
40000b4c:	afb60034 	sw	s6,52(sp)
40000b50:	afb50030 	sw	s5,48(sp)
40000b54:	afb4002c 	sw	s4,44(sp)
40000b58:	afb30028 	sw	s3,40(sp)
40000b5c:	afb20024 	sw	s2,36(sp)
40000b60:	afb0001c 	sw	s0,28(sp)
40000b64:	afbf003c 	sw	ra,60(sp)
40000b68:	afb10020 	sw	s1,32(sp)
40000b6c:	afa50044 	sw	a1,68(sp)
40000b70:	afa60048 	sw	a2,72(sp)
40000b74:	afa7004c 	sw	a3,76(sp)
40000b78:	00808025 	move	s0,a0
40000b7c:	afb70010 	sw	s7,16(sp)
40000b80:	24120025 	li	s2,37
40000b84:	24130064 	li	s3,100
40000b88:	3c154000 	lui	s5,0x4000
40000b8c:	24140073 	li	s4,115
40000b90:	3c164000 	lui	s6,0x4000
40000b94:	82040000 	lb	a0,0(s0)
40000b98:	10800008 	beqz	a0,40000bbc <kprintf+0x7c>
40000b9c:	8fbf003c 	lw	ra,60(sp)
40000ba0:	10920011 	beq	a0,s2,40000be8 <kprintf+0xa8>
40000ba4:	00000000 	nop
40000ba8:	0c0000ac 	jal	400002b0 <putchar>
40000bac:	26100001 	addiu	s0,s0,1
40000bb0:	82040000 	lb	a0,0(s0)
40000bb4:	1480fffa 	bnez	a0,40000ba0 <kprintf+0x60>
40000bb8:	8fbf003c 	lw	ra,60(sp)
40000bbc:	8fb70038 	lw	s7,56(sp)
40000bc0:	8fb60034 	lw	s6,52(sp)
40000bc4:	8fb50030 	lw	s5,48(sp)
40000bc8:	8fb4002c 	lw	s4,44(sp)
40000bcc:	8fb30028 	lw	s3,40(sp)
40000bd0:	8fb20024 	lw	s2,36(sp)
40000bd4:	8fb10020 	lw	s1,32(sp)
40000bd8:	8fb0001c 	lw	s0,28(sp)
40000bdc:	00001025 	move	v0,zero
40000be0:	03e00008 	jr	ra
40000be4:	27bd0040 	addiu	sp,sp,64
40000be8:	82020001 	lb	v0,1(s0)
40000bec:	1053001d 	beq	v0,s3,40000c64 <kprintf+0x124>
40000bf0:	28430065 	slti	v1,v0,101
40000bf4:	1060000a 	beqz	v1,40000c20 <kprintf+0xe0>
40000bf8:	00000000 	nop
40000bfc:	10520038 	beq	v0,s2,40000ce0 <kprintf+0x1a0>
40000c00:	24030063 	li	v1,99
40000c04:	14430032 	bne	v0,v1,40000cd0 <kprintf+0x190>
40000c08:	00000000 	nop
40000c0c:	82e40003 	lb	a0,3(s7)
40000c10:	0c0000ac 	jal	400002b0 <putchar>
40000c14:	26f70004 	addiu	s7,s7,4
40000c18:	080002e5 	j	40000b94 <kprintf+0x54>
40000c1c:	26100002 	addiu	s0,s0,2
40000c20:	1054001e 	beq	v0,s4,40000c9c <kprintf+0x15c>
40000c24:	24030078 	li	v1,120
40000c28:	14430029 	bne	v0,v1,40000cd0 <kprintf+0x190>
40000c2c:	26a237a4 	addiu	v0,s5,14244
40000c30:	8ee40000 	lw	a0,0(s7)
40000c34:	1480002e 	bnez	a0,40000cf0 <kprintf+0x1b0>
40000c38:	26f70004 	addiu	s7,s7,4
40000c3c:	80440000 	lb	a0,0(v0)
40000c40:	1080fff5 	beqz	a0,40000c18 <kprintf+0xd8>
40000c44:	24510001 	addiu	s1,v0,1
40000c48:	0c0000ac 	jal	400002b0 <putchar>
40000c4c:	26310001 	addiu	s1,s1,1
40000c50:	8224ffff 	lb	a0,-1(s1)
40000c54:	1480fffc 	bnez	a0,40000c48 <kprintf+0x108>
40000c58:	00000000 	nop
40000c5c:	080002e5 	j	40000b94 <kprintf+0x54>
40000c60:	26100002 	addiu	s0,s0,2
40000c64:	8ee40000 	lw	a0,0(s7)
40000c68:	26a237a4 	addiu	v0,s5,14244
40000c6c:	14800024 	bnez	a0,40000d00 <kprintf+0x1c0>
40000c70:	26f70004 	addiu	s7,s7,4
40000c74:	80440000 	lb	a0,0(v0)
40000c78:	1080ffe7 	beqz	a0,40000c18 <kprintf+0xd8>
40000c7c:	24510001 	addiu	s1,v0,1
40000c80:	0c0000ac 	jal	400002b0 <putchar>
40000c84:	26310001 	addiu	s1,s1,1
40000c88:	8224ffff 	lb	a0,-1(s1)
40000c8c:	1480fffc 	bnez	a0,40000c80 <kprintf+0x140>
40000c90:	00000000 	nop
40000c94:	080002e5 	j	40000b94 <kprintf+0x54>
40000c98:	26100002 	addiu	s0,s0,2
40000c9c:	8ef10000 	lw	s1,0(s7)
40000ca0:	1220001b 	beqz	s1,40000d10 <kprintf+0x1d0>
40000ca4:	26f70004 	addiu	s7,s7,4
40000ca8:	82240000 	lb	a0,0(s1)
40000cac:	1080ffda 	beqz	a0,40000c18 <kprintf+0xd8>
40000cb0:	00000000 	nop
40000cb4:	0c0000ac 	jal	400002b0 <putchar>
40000cb8:	26310001 	addiu	s1,s1,1
40000cbc:	82240000 	lb	a0,0(s1)
40000cc0:	1480fffc 	bnez	a0,40000cb4 <kprintf+0x174>
40000cc4:	00000000 	nop
40000cc8:	080002e5 	j	40000b94 <kprintf+0x54>
40000ccc:	26100002 	addiu	s0,s0,2
40000cd0:	0c0000ac 	jal	400002b0 <putchar>
40000cd4:	2404003f 	li	a0,63
40000cd8:	080002e5 	j	40000b94 <kprintf+0x54>
40000cdc:	26100002 	addiu	s0,s0,2
40000ce0:	0c0000ac 	jal	400002b0 <putchar>
40000ce4:	24040025 	li	a0,37
40000ce8:	080002e5 	j	40000b94 <kprintf+0x54>
40000cec:	26100002 	addiu	s0,s0,2
40000cf0:	0c00026a 	jal	400009a8 <kitoa.part.0>
40000cf4:	24050010 	li	a1,16
40000cf8:	08000310 	j	40000c40 <kprintf+0x100>
40000cfc:	80440000 	lb	a0,0(v0)
40000d00:	0c00026a 	jal	400009a8 <kitoa.part.0>
40000d04:	2405000a 	li	a1,10
40000d08:	0800031e 	j	40000c78 <kprintf+0x138>
40000d0c:	80440000 	lb	a0,0(v0)
40000d10:	0800032a 	j	40000ca8 <kprintf+0x168>
40000d14:	26d137a8 	addiu	s1,s6,14248

40000d18 <dprintf>:
40000d18:	27bdffc0 	addiu	sp,sp,-64
40000d1c:	afb0001c 	sw	s0,28(sp)
40000d20:	00808025 	move	s0,a0
40000d24:	00002025 	move	a0,zero
40000d28:	afb70038 	sw	s7,56(sp)
40000d2c:	afb60034 	sw	s6,52(sp)
40000d30:	afb50030 	sw	s5,48(sp)
40000d34:	afb4002c 	sw	s4,44(sp)
40000d38:	afb30028 	sw	s3,40(sp)
40000d3c:	afb20024 	sw	s2,36(sp)
40000d40:	afbf003c 	sw	ra,60(sp)
40000d44:	afb10020 	sw	s1,32(sp)
40000d48:	afa50044 	sw	a1,68(sp)
40000d4c:	afa60048 	sw	a2,72(sp)
40000d50:	afa7004c 	sw	a3,76(sp)
40000d54:	0c000082 	jal	40000208 <_interrupt_set>
40000d58:	27b70044 	addiu	s7,sp,68
40000d5c:	afa20010 	sw	v0,16(sp)
40000d60:	afb70014 	sw	s7,20(sp)
40000d64:	24120025 	li	s2,37
40000d68:	24130064 	li	s3,100
40000d6c:	3c154000 	lui	s5,0x4000
40000d70:	24140073 	li	s4,115
40000d74:	3c164000 	lui	s6,0x4000
40000d78:	82040000 	lb	a0,0(s0)
40000d7c:	10800008 	beqz	a0,40000da0 <dprintf+0x88>
40000d80:	00000000 	nop
40000d84:	10920015 	beq	a0,s2,40000ddc <dprintf+0xc4>
40000d88:	00000000 	nop
40000d8c:	0c0000b4 	jal	400002d0 <dputchar>
40000d90:	26100001 	addiu	s0,s0,1
40000d94:	82040000 	lb	a0,0(s0)
40000d98:	1480fffa 	bnez	a0,40000d84 <dprintf+0x6c>
40000d9c:	00000000 	nop
40000da0:	8fa40010 	lw	a0,16(sp)
40000da4:	0c000082 	jal	40000208 <_interrupt_set>
40000da8:	00000000 	nop
40000dac:	8fbf003c 	lw	ra,60(sp)
40000db0:	8fb70038 	lw	s7,56(sp)
40000db4:	8fb60034 	lw	s6,52(sp)
40000db8:	8fb50030 	lw	s5,48(sp)
40000dbc:	8fb4002c 	lw	s4,44(sp)
40000dc0:	8fb30028 	lw	s3,40(sp)
40000dc4:	8fb20024 	lw	s2,36(sp)
40000dc8:	8fb10020 	lw	s1,32(sp)
40000dcc:	8fb0001c 	lw	s0,28(sp)
40000dd0:	00001025 	move	v0,zero
40000dd4:	03e00008 	jr	ra
40000dd8:	27bd0040 	addiu	sp,sp,64
40000ddc:	82020001 	lb	v0,1(s0)
40000de0:	1053001d 	beq	v0,s3,40000e58 <dprintf+0x140>
40000de4:	28430065 	slti	v1,v0,101
40000de8:	1060000a 	beqz	v1,40000e14 <dprintf+0xfc>
40000dec:	00000000 	nop
40000df0:	10520038 	beq	v0,s2,40000ed4 <dprintf+0x1bc>
40000df4:	24030063 	li	v1,99
40000df8:	14430032 	bne	v0,v1,40000ec4 <dprintf+0x1ac>
40000dfc:	00000000 	nop
40000e00:	82e40003 	lb	a0,3(s7)
40000e04:	0c0000ac 	jal	400002b0 <putchar>
40000e08:	26f70004 	addiu	s7,s7,4
40000e0c:	0800035e 	j	40000d78 <dprintf+0x60>
40000e10:	26100002 	addiu	s0,s0,2
40000e14:	1054001e 	beq	v0,s4,40000e90 <dprintf+0x178>
40000e18:	24030078 	li	v1,120
40000e1c:	14430029 	bne	v0,v1,40000ec4 <dprintf+0x1ac>
40000e20:	26a237a4 	addiu	v0,s5,14244
40000e24:	8ee40000 	lw	a0,0(s7)
40000e28:	1480002e 	bnez	a0,40000ee4 <dprintf+0x1cc>
40000e2c:	26f70004 	addiu	s7,s7,4
40000e30:	80440000 	lb	a0,0(v0)
40000e34:	1080fff5 	beqz	a0,40000e0c <dprintf+0xf4>
40000e38:	24510001 	addiu	s1,v0,1
40000e3c:	0c0000b4 	jal	400002d0 <dputchar>
40000e40:	26310001 	addiu	s1,s1,1
40000e44:	8224ffff 	lb	a0,-1(s1)
40000e48:	1480fffc 	bnez	a0,40000e3c <dprintf+0x124>
40000e4c:	00000000 	nop
40000e50:	0800035e 	j	40000d78 <dprintf+0x60>
40000e54:	26100002 	addiu	s0,s0,2
40000e58:	8ee40000 	lw	a0,0(s7)
40000e5c:	26a237a4 	addiu	v0,s5,14244
40000e60:	14800024 	bnez	a0,40000ef4 <dprintf+0x1dc>
40000e64:	26f70004 	addiu	s7,s7,4
40000e68:	80440000 	lb	a0,0(v0)
40000e6c:	1080ffe7 	beqz	a0,40000e0c <dprintf+0xf4>
40000e70:	24510001 	addiu	s1,v0,1
40000e74:	0c0000b4 	jal	400002d0 <dputchar>
40000e78:	26310001 	addiu	s1,s1,1
40000e7c:	8224ffff 	lb	a0,-1(s1)
40000e80:	1480fffc 	bnez	a0,40000e74 <dprintf+0x15c>
40000e84:	00000000 	nop
40000e88:	0800035e 	j	40000d78 <dprintf+0x60>
40000e8c:	26100002 	addiu	s0,s0,2
40000e90:	8ef10000 	lw	s1,0(s7)
40000e94:	1220001b 	beqz	s1,40000f04 <dprintf+0x1ec>
40000e98:	26f70004 	addiu	s7,s7,4
40000e9c:	82240000 	lb	a0,0(s1)
40000ea0:	1080ffda 	beqz	a0,40000e0c <dprintf+0xf4>
40000ea4:	00000000 	nop
40000ea8:	0c0000b4 	jal	400002d0 <dputchar>
40000eac:	26310001 	addiu	s1,s1,1
40000eb0:	82240000 	lb	a0,0(s1)
40000eb4:	1480fffc 	bnez	a0,40000ea8 <dprintf+0x190>
40000eb8:	00000000 	nop
40000ebc:	0800035e 	j	40000d78 <dprintf+0x60>
40000ec0:	26100002 	addiu	s0,s0,2
40000ec4:	0c0000b4 	jal	400002d0 <dputchar>
40000ec8:	2404003f 	li	a0,63
40000ecc:	0800035e 	j	40000d78 <dprintf+0x60>
40000ed0:	26100002 	addiu	s0,s0,2
40000ed4:	0c0000b4 	jal	400002d0 <dputchar>
40000ed8:	24040025 	li	a0,37
40000edc:	0800035e 	j	40000d78 <dprintf+0x60>
40000ee0:	26100002 	addiu	s0,s0,2
40000ee4:	0c00026a 	jal	400009a8 <kitoa.part.0>
40000ee8:	24050010 	li	a1,16
40000eec:	0800038d 	j	40000e34 <dprintf+0x11c>
40000ef0:	80440000 	lb	a0,0(v0)
40000ef4:	0c00026a 	jal	400009a8 <kitoa.part.0>
40000ef8:	2405000a 	li	a1,10
40000efc:	0800039b 	j	40000e6c <dprintf+0x154>
40000f00:	80440000 	lb	a0,0(v0)
40000f04:	080003a7 	j	40000e9c <dprintf+0x184>
40000f08:	26d137a8 	addiu	s1,s6,14248

40000f0c <printchar.part.0>:
40000f0c:	14800003 	bnez	a0,40000f1c <printchar.part.0+0x10>
40000f10:	00000000 	nop
40000f14:	03e00008 	jr	ra
40000f18:	00000000 	nop
40000f1c:	080000ac 	j	400002b0 <putchar>
40000f20:	00000000 	nop

40000f24 <__udivmoddi4.part.2>:
40000f24:	27bdfff8 	addiu	sp,sp,-8
40000f28:	00004025 	move	t0,zero
40000f2c:	24020001 	li	v0,1
40000f30:	afb10004 	sw	s1,4(sp)
40000f34:	afb00000 	sw	s0,0(sp)
40000f38:	04c0000d 	bltz	a2,40000f70 <__udivmoddi4.part.2+0x4c>
40000f3c:	8fb80018 	lw	t8,24(sp)
40000f40:	00074fc2 	srl	t1,a3,0x1f
40000f44:	00063040 	sll	a2,a2,0x1
40000f48:	00021fc2 	srl	v1,v0,0x1f
40000f4c:	00084040 	sll	t0,t0,0x1
40000f50:	01263025 	or	a2,t1,a2
40000f54:	00073840 	sll	a3,a3,0x1
40000f58:	00684025 	or	t0,v1,t0
40000f5c:	04c1fff8 	bgez	a2,40000f40 <__udivmoddi4.part.2+0x1c>
40000f60:	00021040 	sll	v0,v0,0x1
40000f64:	01021825 	or	v1,t0,v0
40000f68:	10600026 	beqz	v1,40001004 <__udivmoddi4.part.2+0xe0>
40000f6c:	00007825 	move	t7,zero
40000f70:	00007825 	move	t7,zero
40000f74:	00001825 	move	v1,zero
40000f78:	0086482b 	sltu	t1,a0,a2
40000f7c:	00086fc0 	sll	t5,t0,0x1f
40000f80:	00026042 	srl	t4,v0,0x1
40000f84:	00065fc0 	sll	t3,a2,0x1f
40000f88:	1520000f 	bnez	t1,40000fc8 <__udivmoddi4.part.2+0xa4>
40000f8c:	00075042 	srl	t2,a3,0x1
40000f90:	00a77023 	subu	t6,a1,a3
40000f94:	00624821 	addu	t1,v1,v0
40000f98:	00ae802b 	sltu	s0,a1,t6
40000f9c:	00868823 	subu	s1,a0,a2
40000fa0:	0123c82b 	sltu	t9,t1,v1
40000fa4:	01e81021 	addu	v0,t7,t0
40000fa8:	14c40003 	bne	a2,a0,40000fb8 <__udivmoddi4.part.2+0x94>
40000fac:	00a7382b 	sltu	a3,a1,a3
40000fb0:	14e00005 	bnez	a3,40000fc8 <__udivmoddi4.part.2+0xa4>
40000fb4:	00000000 	nop
40000fb8:	02302023 	subu	a0,s1,s0
40000fbc:	01c02825 	move	a1,t6
40000fc0:	03227821 	addu	t7,t9,v0
40000fc4:	01201825 	move	v1,t1
40000fc8:	00084042 	srl	t0,t0,0x1
40000fcc:	01ac1025 	or	v0,t5,t4
40000fd0:	01024825 	or	t1,t0,v0
40000fd4:	00063042 	srl	a2,a2,0x1
40000fd8:	1520ffe7 	bnez	t1,40000f78 <__udivmoddi4.part.2+0x54>
40000fdc:	016a3825 	or	a3,t3,t2
40000fe0:	13000004 	beqz	t8,40000ff4 <__udivmoddi4.part.2+0xd0>
40000fe4:	8fb10004 	lw	s1,4(sp)
40000fe8:	af040000 	sw	a0,0(t8)
40000fec:	af050004 	sw	a1,4(t8)
40000ff0:	8fb10004 	lw	s1,4(sp)
40000ff4:	8fb00000 	lw	s0,0(sp)
40000ff8:	01e01025 	move	v0,t7
40000ffc:	03e00008 	jr	ra
40001000:	27bd0008 	addiu	sp,sp,8
40001004:	080003f8 	j	40000fe0 <__udivmoddi4.part.2+0xbc>
40001008:	00001825 	move	v1,zero

4000100c <vsprintf>:
4000100c:	27bdffb8 	addiu	sp,sp,-72
40001010:	afb10024 	sw	s1,36(sp)
40001014:	afb00020 	sw	s0,32(sp)
40001018:	afbf0044 	sw	ra,68(sp)
4000101c:	afbe0040 	sw	s8,64(sp)
40001020:	afb7003c 	sw	s7,60(sp)
40001024:	afb60038 	sw	s6,56(sp)
40001028:	afb50034 	sw	s5,52(sp)
4000102c:	afb40030 	sw	s4,48(sp)
40001030:	afb3002c 	sw	s3,44(sp)
40001034:	afb20028 	sw	s2,40(sp)
40001038:	80a20000 	lb	v0,0(a1)
4000103c:	00a08825 	move	s1,a1
40001040:	00808025 	move	s0,a0
40001044:	1440000e 	bnez	v0,40001080 <vsprintf+0x74>
40001048:	afa60050 	sw	a2,80(sp)
4000104c:	08000478 	j	400011e0 <vsprintf+0x1d4>
40001050:	00000000 	nop
40001054:	120000cf 	beqz	s0,40001394 <vsprintf+0x388>
40001058:	00000000 	nop
4000105c:	8e040000 	lw	a0,0(s0)
40001060:	0220b825 	move	s7,s1
40001064:	a0820000 	sb	v0,0(a0)
40001068:	8e020000 	lw	v0,0(s0)
4000106c:	24420001 	addiu	v0,v0,1
40001070:	ae020000 	sw	v0,0(s0)
40001074:	82e20001 	lb	v0,1(s7)
40001078:	10400059 	beqz	v0,400011e0 <vsprintf+0x1d4>
4000107c:	26f10001 	addiu	s1,s7,1
40001080:	24040025 	li	a0,37
40001084:	1444fff3 	bne	v0,a0,40001054 <vsprintf+0x48>
40001088:	00000000 	nop
4000108c:	82240001 	lb	a0,1(s1)
40001090:	24020030 	li	v0,48
40001094:	1082006a 	beq	a0,v0,40001240 <vsprintf+0x234>
40001098:	2482ffd0 	addiu	v0,a0,-48
4000109c:	304200ff 	andi	v0,v0,0xff
400010a0:	2c42000a 	sltiu	v0,v0,10
400010a4:	1440003b 	bnez	v0,40001194 <vsprintf+0x188>
400010a8:	26370001 	addiu	s7,s1,1
400010ac:	00801025 	move	v0,a0
400010b0:	241e0020 	li	s8,32
400010b4:	2411ffff 	li	s1,-1
400010b8:	2405006c 	li	a1,108
400010bc:	10850045 	beq	a0,a1,400011d4 <vsprintf+0x1c8>
400010c0:	00000000 	nop
400010c4:	2442ffa8 	addiu	v0,v0,-88
400010c8:	304200ff 	andi	v0,v0,0xff
400010cc:	2c440021 	sltiu	a0,v0,33
400010d0:	1080ffe8 	beqz	a0,40001074 <vsprintf+0x68>
400010d4:	3c034000 	lui	v1,0x4000
400010d8:	00021080 	sll	v0,v0,0x2
400010dc:	24633814 	addiu	v1,v1,14356
400010e0:	00621021 	addu	v0,v1,v0
400010e4:	8c420000 	lw	v0,0(v0)
400010e8:	00400008 	jr	v0
400010ec:	00000000 	nop
400010f0:	2413000a 	li	s3,10
400010f4:	8fa30050 	lw	v1,80(sp)
400010f8:	8c760000 	lw	s6,0(v1)
400010fc:	24720004 	addiu	s2,v1,4
40001100:	16c0005a 	bnez	s6,4000126c <vsprintf+0x260>
40001104:	24020030 	li	v0,48
40001108:	24150001 	li	s5,1
4000110c:	afb20050 	sw	s2,80(sp)
40001110:	a3a20010 	sb	v0,16(sp)
40001114:	27b20010 	addiu	s2,sp,16
40001118:	02358823 	subu	s1,s1,s5
4000111c:	1a20000b 	blez	s1,4000114c <vsprintf+0x140>
40001120:	00000000 	nop
40001124:	12000042 	beqz	s0,40001230 <vsprintf+0x224>
40001128:	00000000 	nop
4000112c:	8e020000 	lw	v0,0(s0)
40001130:	2631ffff 	addiu	s1,s1,-1
40001134:	a05e0000 	sb	s8,0(v0)
40001138:	8e020000 	lw	v0,0(s0)
4000113c:	24420001 	addiu	v0,v0,1
40001140:	ae020000 	sw	v0,0(s0)
40001144:	1e20fff7 	bgtz	s1,40001124 <vsprintf+0x118>
40001148:	00000000 	nop
4000114c:	26b1ffff 	addiu	s1,s5,-1
40001150:	02518821 	addu	s1,s2,s1
40001154:	27b2000f 	addiu	s2,sp,15
40001158:	1232ffc6 	beq	s1,s2,40001074 <vsprintf+0x68>
4000115c:	00000000 	nop
40001160:	12000008 	beqz	s0,40001184 <vsprintf+0x178>
40001164:	82240000 	lb	a0,0(s1)
40001168:	8e020000 	lw	v0,0(s0)
4000116c:	2631ffff 	addiu	s1,s1,-1
40001170:	a0440000 	sb	a0,0(v0)
40001174:	8e020000 	lw	v0,0(s0)
40001178:	24420001 	addiu	v0,v0,1
4000117c:	08000456 	j	40001158 <vsprintf+0x14c>
40001180:	ae020000 	sw	v0,0(s0)
40001184:	0c0003c3 	jal	40000f0c <printchar.part.0>
40001188:	2631ffff 	addiu	s1,s1,-1
4000118c:	08000456 	j	40001158 <vsprintf+0x14c>
40001190:	00000000 	nop
40001194:	241e0020 	li	s8,32
40001198:	00008825 	move	s1,zero
4000119c:	00111040 	sll	v0,s1,0x1
400011a0:	001188c0 	sll	s1,s1,0x3
400011a4:	00518821 	addu	s1,v0,s1
400011a8:	26f70001 	addiu	s7,s7,1
400011ac:	02248821 	addu	s1,s1,a0
400011b0:	82e40000 	lb	a0,0(s7)
400011b4:	2482ffd0 	addiu	v0,a0,-48
400011b8:	304200ff 	andi	v0,v0,0xff
400011bc:	2c42000a 	sltiu	v0,v0,10
400011c0:	1440fff6 	bnez	v0,4000119c <vsprintf+0x190>
400011c4:	2631ffd0 	addiu	s1,s1,-48
400011c8:	2405006c 	li	a1,108
400011cc:	1485ffbd 	bne	a0,a1,400010c4 <vsprintf+0xb8>
400011d0:	00801025 	move	v0,a0
400011d4:	82e20001 	lb	v0,1(s7)
400011d8:	08000431 	j	400010c4 <vsprintf+0xb8>
400011dc:	26f70001 	addiu	s7,s7,1
400011e0:	12000007 	beqz	s0,40001200 <vsprintf+0x1f4>
400011e4:	8fbf0044 	lw	ra,68(sp)
400011e8:	8e020000 	lw	v0,0(s0)
400011ec:	a0400000 	sb	zero,0(v0)
400011f0:	8e020000 	lw	v0,0(s0)
400011f4:	24420001 	addiu	v0,v0,1
400011f8:	ae020000 	sw	v0,0(s0)
400011fc:	8fbf0044 	lw	ra,68(sp)
40001200:	8fbe0040 	lw	s8,64(sp)
40001204:	8fb7003c 	lw	s7,60(sp)
40001208:	8fb60038 	lw	s6,56(sp)
4000120c:	8fb50034 	lw	s5,52(sp)
40001210:	8fb40030 	lw	s4,48(sp)
40001214:	8fb3002c 	lw	s3,44(sp)
40001218:	8fb20028 	lw	s2,40(sp)
4000121c:	8fb10024 	lw	s1,36(sp)
40001220:	8fb00020 	lw	s0,32(sp)
40001224:	00001025 	move	v0,zero
40001228:	03e00008 	jr	ra
4000122c:	27bd0048 	addiu	sp,sp,72
40001230:	0c0003c3 	jal	40000f0c <printchar.part.0>
40001234:	03c02025 	move	a0,s8
40001238:	08000451 	j	40001144 <vsprintf+0x138>
4000123c:	2631ffff 	addiu	s1,s1,-1
40001240:	82240002 	lb	a0,2(s1)
40001244:	26370002 	addiu	s7,s1,2
40001248:	2482ffd0 	addiu	v0,a0,-48
4000124c:	304200ff 	andi	v0,v0,0xff
40001250:	2c42000a 	sltiu	v0,v0,10
40001254:	1440ffd0 	bnez	v0,40001198 <vsprintf+0x18c>
40001258:	241e0030 	li	s8,48
4000125c:	00801025 	move	v0,a0
40001260:	241e0030 	li	s8,48
40001264:	0800042e 	j	400010b8 <vsprintf+0xac>
40001268:	2411ffff 	li	s1,-1
4000126c:	afb20050 	sw	s2,80(sp)
40001270:	0000a825 	move	s5,zero
40001274:	27b20010 	addiu	s2,sp,16
40001278:	02c02025 	move	a0,s6
4000127c:	02c0a025 	move	s4,s6
40001280:	0c0005b9 	jal	400016e4 <__udivsi3>
40001284:	02602825 	move	a1,s3
40001288:	02802025 	move	a0,s4
4000128c:	02602825 	move	a1,s3
40001290:	0c0005bb 	jal	400016ec <__umodsi3>
40001294:	0040b025 	move	s6,v0
40001298:	3c034000 	lui	v1,0x4000
4000129c:	24633790 	addiu	v1,v1,14224
400012a0:	00621021 	addu	v0,v1,v0
400012a4:	90440000 	lbu	a0,0(v0)
400012a8:	26b50001 	addiu	s5,s5,1
400012ac:	02551021 	addu	v0,s2,s5
400012b0:	16c0fff1 	bnez	s6,40001278 <vsprintf+0x26c>
400012b4:	a044ffff 	sb	a0,-1(v0)
400012b8:	08000447 	j	4000111c <vsprintf+0x110>
400012bc:	02358823 	subu	s1,s1,s5
400012c0:	8fa30050 	lw	v1,80(sp)
400012c4:	8c720000 	lw	s2,0(v1)
400012c8:	1240004c 	beqz	s2,400013fc <vsprintf+0x3f0>
400012cc:	24750004 	addiu	s5,v1,4
400012d0:	82440000 	lb	a0,0(s2)
400012d4:	1080000e 	beqz	a0,40001310 <vsprintf+0x304>
400012d8:	00000000 	nop
400012dc:	12200039 	beqz	s1,400013c4 <vsprintf+0x3b8>
400012e0:	00000000 	nop
400012e4:	1200002f 	beqz	s0,400013a4 <vsprintf+0x398>
400012e8:	00000000 	nop
400012ec:	8e020000 	lw	v0,0(s0)
400012f0:	a0440000 	sb	a0,0(v0)
400012f4:	8e020000 	lw	v0,0(s0)
400012f8:	24420001 	addiu	v0,v0,1
400012fc:	ae020000 	sw	v0,0(s0)
40001300:	26520001 	addiu	s2,s2,1
40001304:	82440000 	lb	a0,0(s2)
40001308:	1480fff4 	bnez	a0,400012dc <vsprintf+0x2d0>
4000130c:	2631ffff 	addiu	s1,s1,-1
40001310:	1a20000b 	blez	s1,40001340 <vsprintf+0x334>
40001314:	00000000 	nop
40001318:	12000026 	beqz	s0,400013b4 <vsprintf+0x3a8>
4000131c:	00000000 	nop
40001320:	8e020000 	lw	v0,0(s0)
40001324:	2631ffff 	addiu	s1,s1,-1
40001328:	a05e0000 	sb	s8,0(v0)
4000132c:	8e020000 	lw	v0,0(s0)
40001330:	24420001 	addiu	v0,v0,1
40001334:	ae020000 	sw	v0,0(s0)
40001338:	1e20fff7 	bgtz	s1,40001318 <vsprintf+0x30c>
4000133c:	00000000 	nop
40001340:	0800041d 	j	40001074 <vsprintf+0x68>
40001344:	afb50050 	sw	s5,80(sp)
40001348:	8fa30050 	lw	v1,80(sp)
4000134c:	8c760000 	lw	s6,0(v1)
40001350:	06c0001e 	bltz	s6,400013cc <vsprintf+0x3c0>
40001354:	24720004 	addiu	s2,v1,4
40001358:	08000440 	j	40001100 <vsprintf+0xf4>
4000135c:	2413000a 	li	s3,10
40001360:	8fa30050 	lw	v1,80(sp)
40001364:	24710004 	addiu	s1,v1,4
40001368:	12000027 	beqz	s0,40001408 <vsprintf+0x3fc>
4000136c:	80640003 	lb	a0,3(v1)
40001370:	8e020000 	lw	v0,0(s0)
40001374:	afb10050 	sw	s1,80(sp)
40001378:	a0440000 	sb	a0,0(v0)
4000137c:	8e020000 	lw	v0,0(s0)
40001380:	24420001 	addiu	v0,v0,1
40001384:	0800041d 	j	40001074 <vsprintf+0x68>
40001388:	ae020000 	sw	v0,0(s0)
4000138c:	0800043d 	j	400010f4 <vsprintf+0xe8>
40001390:	24130010 	li	s3,16
40001394:	0c0003c3 	jal	40000f0c <printchar.part.0>
40001398:	00402025 	move	a0,v0
4000139c:	0800041d 	j	40001074 <vsprintf+0x68>
400013a0:	0220b825 	move	s7,s1
400013a4:	0c0003c3 	jal	40000f0c <printchar.part.0>
400013a8:	26520001 	addiu	s2,s2,1
400013ac:	080004c2 	j	40001308 <vsprintf+0x2fc>
400013b0:	82440000 	lb	a0,0(s2)
400013b4:	0c0003c3 	jal	40000f0c <printchar.part.0>
400013b8:	03c02025 	move	a0,s8
400013bc:	080004ce 	j	40001338 <vsprintf+0x32c>
400013c0:	2631ffff 	addiu	s1,s1,-1
400013c4:	080004c4 	j	40001310 <vsprintf+0x304>
400013c8:	00008825 	move	s1,zero
400013cc:	12000012 	beqz	s0,40001418 <vsprintf+0x40c>
400013d0:	0016b023 	negu	s6,s6
400013d4:	8e020000 	lw	v0,0(s0)
400013d8:	2404002d 	li	a0,45
400013dc:	a0440000 	sb	a0,0(v0)
400013e0:	8e020000 	lw	v0,0(s0)
400013e4:	24420001 	addiu	v0,v0,1
400013e8:	ae020000 	sw	v0,0(s0)
400013ec:	2631ffff 	addiu	s1,s1,-1
400013f0:	afb20050 	sw	s2,80(sp)
400013f4:	0800049c 	j	40001270 <vsprintf+0x264>
400013f8:	2413000a 	li	s3,10
400013fc:	3c024000 	lui	v0,0x4000
40001400:	080004b4 	j	400012d0 <vsprintf+0x2c4>
40001404:	245237f8 	addiu	s2,v0,14328
40001408:	0c0003c3 	jal	40000f0c <printchar.part.0>
4000140c:	00000000 	nop
40001410:	0800041d 	j	40001074 <vsprintf+0x68>
40001414:	afb10050 	sw	s1,80(sp)
40001418:	0c0000ac 	jal	400002b0 <putchar>
4000141c:	2404002d 	li	a0,45
40001420:	080004fc 	j	400013f0 <vsprintf+0x3e4>
40001424:	2631ffff 	addiu	s1,s1,-1

40001428 <strncpy>:
40001428:	18c0000f 	blez	a2,40001468 <strncpy+0x40>
4000142c:	00801025 	move	v0,a0
40001430:	80a40000 	lb	a0,0(a1)
40001434:	24430001 	addiu	v1,v0,1
40001438:	00003825 	move	a3,zero
4000143c:	14800006 	bnez	a0,40001458 <strncpy+0x30>
40001440:	a0440000 	sb	a0,0(v0)
40001444:	08000526 	j	40001498 <strncpy+0x70>
40001448:	24070001 	li	a3,1
4000144c:	81080000 	lb	t0,0(t0)
40001450:	11000007 	beqz	t0,40001470 <strncpy+0x48>
40001454:	a068ffff 	sb	t0,-1(v1)
40001458:	24e70001 	addiu	a3,a3,1
4000145c:	00a74021 	addu	t0,a1,a3
40001460:	14e6fffa 	bne	a3,a2,4000144c <strncpy+0x24>
40001464:	24630001 	addiu	v1,v1,1
40001468:	03e00008 	jr	ra
4000146c:	00000000 	nop
40001470:	24e70001 	addiu	a3,a3,1
40001474:	00e6202a 	slt	a0,a3,a2
40001478:	1080fffb 	beqz	a0,40001468 <strncpy+0x40>
4000147c:	00c73823 	subu	a3,a2,a3
40001480:	00673821 	addu	a3,v1,a3
40001484:	24630001 	addiu	v1,v1,1
40001488:	1467fffe 	bne	v1,a3,40001484 <strncpy+0x5c>
4000148c:	a060ffff 	sb	zero,-1(v1)
40001490:	03e00008 	jr	ra
40001494:	00000000 	nop
40001498:	0800051e 	j	40001478 <strncpy+0x50>
4000149c:	00e6202a 	slt	a0,a3,a2

400014a0 <memset>:
400014a0:	10c00007 	beqz	a2,400014c0 <memset+0x20>
400014a4:	00801025 	move	v0,a0
400014a8:	30a500ff 	andi	a1,a1,0xff
400014ac:	00863021 	addu	a2,a0,a2
400014b0:	00801825 	move	v1,a0
400014b4:	24630001 	addiu	v1,v1,1
400014b8:	1466fffe 	bne	v1,a2,400014b4 <memset+0x14>
400014bc:	a065ffff 	sb	a1,-1(v1)
400014c0:	03e00008 	jr	ra
400014c4:	00000000 	nop

400014c8 <random>:
400014c8:	3c044000 	lui	a0,0x4000
400014cc:	8c834298 	lw	v1,17048(a0)
400014d0:	000328c0 	sll	a1,v1,0x3
400014d4:	000312c0 	sll	v0,v1,0xb
400014d8:	00451023 	subu	v0,v0,a1
400014dc:	00431021 	addu	v0,v0,v1
400014e0:	000211c0 	sll	v0,v0,0x7
400014e4:	00431021 	addu	v0,v0,v1
400014e8:	000210c0 	sll	v0,v0,0x3
400014ec:	00431023 	subu	v0,v0,v1
400014f0:	00022940 	sll	a1,v0,0x5
400014f4:	00451021 	addu	v0,v0,a1
400014f8:	00021080 	sll	v0,v0,0x2
400014fc:	00431023 	subu	v0,v0,v1
40001500:	00021080 	sll	v0,v0,0x2
40001504:	00431821 	addu	v1,v0,v1
40001508:	24633039 	addiu	v1,v1,12345
4000150c:	00031402 	srl	v0,v1,0x10
40001510:	ac834298 	sw	v1,17048(a0)
40001514:	03e00008 	jr	ra
40001518:	30427fff 	andi	v0,v0,0x7fff

4000151c <printf>:
4000151c:	27bdffe0 	addiu	sp,sp,-32
40001520:	27a20024 	addiu	v0,sp,36
40001524:	00801825 	move	v1,a0
40001528:	00002025 	move	a0,zero
4000152c:	afa50024 	sw	a1,36(sp)
40001530:	afa60028 	sw	a2,40(sp)
40001534:	00602825 	move	a1,v1
40001538:	00403025 	move	a2,v0
4000153c:	afbf001c 	sw	ra,28(sp)
40001540:	afa7002c 	sw	a3,44(sp)
40001544:	0c000403 	jal	4000100c <vsprintf>
40001548:	afa20010 	sw	v0,16(sp)
4000154c:	8fbf001c 	lw	ra,28(sp)
40001550:	03e00008 	jr	ra
40001554:	27bd0020 	addiu	sp,sp,32

40001558 <__udivmodsi4>:
40001558:	00a4102b 	sltu	v0,a1,a0
4000155c:	10400010 	beqz	v0,400015a0 <__udivmodsi4+0x48>
40001560:	24030001 	li	v1,1
40001564:	04a0001d 	bltz	a1,400015dc <__udivmodsi4+0x84>
40001568:	24020020 	li	v0,32
4000156c:	08000562 	j	40001588 <__udivmodsi4+0x30>
40001570:	00052840 	sll	a1,a1,0x1
40001574:	10400013 	beqz	v0,400015c4 <__udivmodsi4+0x6c>
40001578:	00003825 	move	a3,zero
4000157c:	04a00009 	bltz	a1,400015a4 <__udivmodsi4+0x4c>
40001580:	00000000 	nop
40001584:	00052840 	sll	a1,a1,0x1
40001588:	00a4382b 	sltu	a3,a1,a0
4000158c:	2442ffff 	addiu	v0,v0,-1
40001590:	14e0fff8 	bnez	a3,40001574 <__udivmodsi4+0x1c>
40001594:	00031840 	sll	v1,v1,0x1
40001598:	1060000a 	beqz	v1,400015c4 <__udivmodsi4+0x6c>
4000159c:	00003825 	move	a3,zero
400015a0:	00003825 	move	a3,zero
400015a4:	0085102b 	sltu	v0,a0,a1
400015a8:	14400003 	bnez	v0,400015b8 <__udivmodsi4+0x60>
400015ac:	00000000 	nop
400015b0:	00852023 	subu	a0,a0,a1
400015b4:	00e33825 	or	a3,a3,v1
400015b8:	00031842 	srl	v1,v1,0x1
400015bc:	1460fff9 	bnez	v1,400015a4 <__udivmodsi4+0x4c>
400015c0:	00052842 	srl	a1,a1,0x1
400015c4:	14c00003 	bnez	a2,400015d4 <__udivmodsi4+0x7c>
400015c8:	00801025 	move	v0,a0
400015cc:	03e00008 	jr	ra
400015d0:	00e01025 	move	v0,a3
400015d4:	03e00008 	jr	ra
400015d8:	00000000 	nop
400015dc:	08000568 	j	400015a0 <__udivmodsi4+0x48>
400015e0:	24030001 	li	v1,1

400015e4 <__divsi3>:
400015e4:	27bdffe8 	addiu	sp,sp,-24
400015e8:	afb00010 	sw	s0,16(sp)
400015ec:	afbf0014 	sw	ra,20(sp)
400015f0:	0480000c 	bltz	a0,40001624 <__divsi3+0x40>
400015f4:	00008025 	move	s0,zero
400015f8:	04a0000d 	bltz	a1,40001630 <__divsi3+0x4c>
400015fc:	00000000 	nop
40001600:	0c000556 	jal	40001558 <__udivmodsi4>
40001604:	00003025 	move	a2,zero
40001608:	8fbf0014 	lw	ra,20(sp)
4000160c:	00101823 	negu	v1,s0
40001610:	00621026 	xor	v0,v1,v0
40001614:	00501021 	addu	v0,v0,s0
40001618:	8fb00010 	lw	s0,16(sp)
4000161c:	03e00008 	jr	ra
40001620:	27bd0018 	addiu	sp,sp,24
40001624:	00042023 	negu	a0,a0
40001628:	04a1fff5 	bgez	a1,40001600 <__divsi3+0x1c>
4000162c:	24100001 	li	s0,1
40001630:	00052823 	negu	a1,a1
40001634:	0c000556 	jal	40001558 <__udivmodsi4>
40001638:	00003025 	move	a2,zero
4000163c:	3a100001 	xori	s0,s0,0x1
40001640:	8fbf0014 	lw	ra,20(sp)
40001644:	00101823 	negu	v1,s0
40001648:	00621026 	xor	v0,v1,v0
4000164c:	00501021 	addu	v0,v0,s0
40001650:	8fb00010 	lw	s0,16(sp)
40001654:	03e00008 	jr	ra
40001658:	27bd0018 	addiu	sp,sp,24

4000165c <__modsi3>:
4000165c:	27bdffe0 	addiu	sp,sp,-32
40001660:	afbf001c 	sw	ra,28(sp)
40001664:	afb10018 	sw	s1,24(sp)
40001668:	0480000f 	bltz	a0,400016a8 <__modsi3+0x4c>
4000166c:	afb00014 	sw	s0,20(sp)
40001670:	00051fc3 	sra	v1,a1,0x1f
40001674:	00652826 	xor	a1,v1,a1
40001678:	00a32823 	subu	a1,a1,v1
4000167c:	0c000556 	jal	40001558 <__udivmodsi4>
40001680:	24060001 	li	a2,1
40001684:	8fbf001c 	lw	ra,28(sp)
40001688:	00008025 	move	s0,zero
4000168c:	00008825 	move	s1,zero
40001690:	00501026 	xor	v0,v0,s0
40001694:	02221021 	addu	v0,s1,v0
40001698:	8fb00014 	lw	s0,20(sp)
4000169c:	8fb10018 	lw	s1,24(sp)
400016a0:	03e00008 	jr	ra
400016a4:	27bd0020 	addiu	sp,sp,32
400016a8:	00051fc3 	sra	v1,a1,0x1f
400016ac:	00652826 	xor	a1,v1,a1
400016b0:	00042023 	negu	a0,a0
400016b4:	00a32823 	subu	a1,a1,v1
400016b8:	0c000556 	jal	40001558 <__udivmodsi4>
400016bc:	24060001 	li	a2,1
400016c0:	8fbf001c 	lw	ra,28(sp)
400016c4:	2410ffff 	li	s0,-1
400016c8:	24110001 	li	s1,1
400016cc:	00501026 	xor	v0,v0,s0
400016d0:	02221021 	addu	v0,s1,v0
400016d4:	8fb00014 	lw	s0,20(sp)
400016d8:	8fb10018 	lw	s1,24(sp)
400016dc:	03e00008 	jr	ra
400016e0:	27bd0020 	addiu	sp,sp,32

400016e4 <__udivsi3>:
400016e4:	08000556 	j	40001558 <__udivmodsi4>
400016e8:	00003025 	move	a2,zero

400016ec <__umodsi3>:
400016ec:	08000556 	j	40001558 <__udivmodsi4>
400016f0:	24060001 	li	a2,1

400016f4 <__udivdi3>:
400016f4:	00c74025 	or	t0,a2,a3
400016f8:	24030001 	li	v1,1
400016fc:	15000003 	bnez	t0,4000170c <__udivdi3+0x18>
40001700:	00001025 	move	v0,zero
40001704:	03e00008 	jr	ra
40001708:	00000000 	nop
4000170c:	27bdffe0 	addiu	sp,sp,-32
40001710:	afa00010 	sw	zero,16(sp)
40001714:	afbf001c 	sw	ra,28(sp)
40001718:	0c0003c9 	jal	40000f24 <__udivmoddi4.part.2>
4000171c:	00000000 	nop
40001720:	8fbf001c 	lw	ra,28(sp)
40001724:	03e00008 	jr	ra
40001728:	27bd0020 	addiu	sp,sp,32

4000172c <main>:
4000172c:	27bdffd0 	addiu	sp,sp,-48
40001730:	afbf002c 	sw	ra,44(sp)
40001734:	afb30028 	sw	s3,40(sp)
40001738:	afb20024 	sw	s2,36(sp)
4000173c:	afb10020 	sw	s1,32(sp)
40001740:	0c000101 	jal	40000404 <_hardware_init>
40001744:	afb0001c 	sw	s0,28(sp)
40001748:	0c000786 	jal	40001e18 <hf_schedlock>
4000174c:	24040001 	li	a0,1
40001750:	0c000082 	jal	40000208 <_interrupt_set>
40001754:	00002025 	move	a0,zero
40001758:	3c044000 	lui	a0,0x4000
4000175c:	0c0002d0 	jal	40000b40 <kprintf>
40001760:	24843898 	addiu	a0,a0,14488
40001764:	3c034000 	lui	v1,0x4000
40001768:	8c64429c 	lw	a0,17052(v1)
4000176c:	3c02baad 	lui	v0,0xbaad
40001770:	3442d00d 	ori	v0,v0,0xd00d
40001774:	1082000b 	beq	a0,v0,400017a4 <main+0x78>
40001778:	3c044000 	lui	a0,0x4000
4000177c:	0c000713 	jal	40001c4c <panic>
40001780:	24040001 	li	a0,1
40001784:	8fbf002c 	lw	ra,44(sp)
40001788:	8fb30028 	lw	s3,40(sp)
4000178c:	8fb20024 	lw	s2,36(sp)
40001790:	8fb10020 	lw	s1,32(sp)
40001794:	8fb0001c 	lw	s0,28(sp)
40001798:	00001025 	move	v0,zero
4000179c:	03e00008 	jr	ra
400017a0:	27bd0030 	addiu	sp,sp,48
400017a4:	248438ac 	addiu	a0,a0,14508
400017a8:	0c0002d0 	jal	40000b40 <kprintf>
400017ac:	ac60429c 	sw	zero,17052(v1)
400017b0:	3c024000 	lui	v0,0x4000
400017b4:	2442392c 	addiu	v0,v0,14636
400017b8:	3c064000 	lui	a2,0x4000
400017bc:	3c074000 	lui	a3,0x4000
400017c0:	3c054000 	lui	a1,0x4000
400017c4:	3c044000 	lui	a0,0x4000
400017c8:	24c63918 	addiu	a2,a2,14616
400017cc:	24e73920 	addiu	a3,a3,14624
400017d0:	24a5390c 	addiu	a1,a1,14604
400017d4:	248438ec 	addiu	a0,a0,14572
400017d8:	0c0002d0 	jal	40000b40 <kprintf>
400017dc:	afa20010 	sw	v0,16(sp)
400017e0:	3c044000 	lui	a0,0x4000
400017e4:	0c0002d0 	jal	40000b40 <kprintf>
400017e8:	24843938 	addiu	a0,a0,14648
400017ec:	3c044000 	lui	a0,0x4000
400017f0:	0c0002d0 	jal	40000b40 <kprintf>
400017f4:	24843970 	addiu	a0,a0,14704
400017f8:	3c044000 	lui	a0,0x4000
400017fc:	3c054000 	lui	a1,0x4000
40001800:	248439b0 	addiu	a0,a0,14768
40001804:	0c0002d0 	jal	40000b40 <kprintf>
40001808:	24a539c4 	addiu	a1,a1,14788
4000180c:	3c044000 	lui	a0,0x4000
40001810:	248439d4 	addiu	a0,a0,14804
40001814:	0c0002d0 	jal	40000b40 <kprintf>
40001818:	240561a8 	li	a1,25000
4000181c:	3c044000 	lui	a0,0x4000
40001820:	3c050007 	lui	a1,0x7
40001824:	248439ec 	addiu	a0,a0,14828
40001828:	0c0002d0 	jal	40000b40 <kprintf>
4000182c:	34a5a120 	ori	a1,a1,0xa120
40001830:	3c044000 	lui	a0,0x4000
40001834:	24843a08 	addiu	a0,a0,14856
40001838:	2405001e 	li	a1,30
4000183c:	3c104000 	lui	s0,0x4000
40001840:	0c0002d0 	jal	40000b40 <kprintf>
40001844:	3c124000 	lui	s2,0x4000
40001848:	0c00010b 	jal	4000042c <_vm_init>
4000184c:	261042dc 	addiu	s0,s0,17116
40001850:	26525524 	addiu	s2,s2,21796
40001854:	3c114008 	lui	s1,0x4008
40001858:	2413ffff 	li	s3,-1
4000185c:	26040002 	addiu	a0,s0,2
40001860:	00002825 	move	a1,zero
40001864:	24060014 	li	a2,20
40001868:	ae30f664 	sw	s0,-2460(s1)
4000186c:	0c000528 	jal	400014a0 <memset>
40001870:	a6130000 	sh	s3,0(s0)
40001874:	8e22f664 	lw	v0,-2460(s1)
40001878:	2610009c 	addiu	s0,s0,156
4000187c:	a0400016 	sb	zero,22(v0)
40001880:	a0400017 	sb	zero,23(v0)
40001884:	a0400018 	sb	zero,24(v0)
40001888:	ac40001c 	sw	zero,28(v0)
4000188c:	ac400020 	sw	zero,32(v0)
40001890:	ac400024 	sw	zero,36(v0)
40001894:	ac400028 	sw	zero,40(v0)
40001898:	ac40002c 	sw	zero,44(v0)
4000189c:	a4400030 	sh	zero,48(v0)
400018a0:	a4400032 	sh	zero,50(v0)
400018a4:	a4400034 	sh	zero,52(v0)
400018a8:	a4400036 	sh	zero,54(v0)
400018ac:	a4400038 	sh	zero,56(v0)
400018b0:	ac40008c 	sw	zero,140(v0)
400018b4:	ac400090 	sw	zero,144(v0)
400018b8:	ac400094 	sw	zero,148(v0)
400018bc:	1612ffe7 	bne	s0,s2,4000185c <main+0x130>
400018c0:	ac400098 	sw	zero,152(v0)
400018c4:	3c034008 	lui	v1,0x4008
400018c8:	a460f66c 	sh	zero,-2452(v1)
400018cc:	3c034008 	lui	v1,0x4008
400018d0:	a460f660 	sh	zero,-2464(v1)
400018d4:	3c034008 	lui	v1,0x4008
400018d8:	a460f680 	sh	zero,-2432(v1)
400018dc:	3c034000 	lui	v1,0x4000
400018e0:	3c054008 	lui	a1,0x4008
400018e4:	2463278c 	addiu	v1,v1,10124
400018e8:	aca3f644 	sw	v1,-2492(a1)
400018ec:	3c034000 	lui	v1,0x4000
400018f0:	24a2f644 	addiu	v0,a1,-2492
400018f4:	246329cc 	addiu	v1,v1,10700
400018f8:	ac430004 	sw	v1,4(v0)
400018fc:	3c034000 	lui	v1,0x4000
40001900:	24632614 	addiu	v1,v1,9748
40001904:	2404001e 	li	a0,30
40001908:	ac430008 	sw	v1,8(v0)
4000190c:	ac40000c 	sw	zero,12(v0)
40001910:	ac400010 	sw	zero,16(v0)
40001914:	ac400014 	sw	zero,20(v0)
40001918:	0c00079c 	jal	40001e70 <hf_queue_create>
4000191c:	ac400018 	sw	zero,24(v0)
40001920:	3c034008 	lui	v1,0x4008
40001924:	1040002c 	beqz	v0,400019d8 <main+0x2ac>
40001928:	ac62f678 	sw	v0,-2440(v1)
4000192c:	0c00079c 	jal	40001e70 <hf_queue_create>
40001930:	2404001e 	li	a0,30
40001934:	3c034008 	lui	v1,0x4008
40001938:	10400023 	beqz	v0,400019c8 <main+0x29c>
4000193c:	ac62f684 	sw	v0,-2428(v1)
40001940:	0c00079c 	jal	40001e70 <hf_queue_create>
40001944:	2404001e 	li	a0,30
40001948:	3c034008 	lui	v1,0x4008
4000194c:	1040001a 	beqz	v0,400019b8 <main+0x28c>
40001950:	ac62f67c 	sw	v0,-2436(v1)
40001954:	0c00079c 	jal	40001e70 <hf_queue_create>
40001958:	2404001e 	li	a0,30
4000195c:	3c034008 	lui	v1,0x4008
40001960:	10400011 	beqz	v0,400019a8 <main+0x27c>
40001964:	ac62f670 	sw	v0,-2448(v1)
40001968:	0c000117 	jal	4000045c <_sched_init>
4000196c:	00000000 	nop
40001970:	0c00011e 	jal	40000478 <_timer_init>
40001974:	00000000 	nop
40001978:	0c0001a5 	jal	40000694 <_timer_reset>
4000197c:	00000000 	nop
40001980:	0c00012a 	jal	400004a8 <_irq_init>
40001984:	00000000 	nop
40001988:	0c000136 	jal	400004d8 <_device_init>
4000198c:	00000000 	nop
40001990:	0c000139 	jal	400004e4 <_task_init>
40001994:	00000000 	nop
40001998:	0c000713 	jal	40001c4c <panic>
4000199c:	00002025 	move	a0,zero
400019a0:	080005e2 	j	40001788 <main+0x5c>
400019a4:	8fbf002c 	lw	ra,44(sp)
400019a8:	0c000713 	jal	40001c4c <panic>
400019ac:	24040004 	li	a0,4
400019b0:	0800065a 	j	40001968 <main+0x23c>
400019b4:	00000000 	nop
400019b8:	0c000713 	jal	40001c4c <panic>
400019bc:	24040004 	li	a0,4
400019c0:	08000655 	j	40001954 <main+0x228>
400019c4:	00000000 	nop
400019c8:	0c000713 	jal	40001c4c <panic>
400019cc:	24040004 	li	a0,4
400019d0:	08000650 	j	40001940 <main+0x214>
400019d4:	00000000 	nop
400019d8:	0c000713 	jal	40001c4c <panic>
400019dc:	24040004 	li	a0,4
400019e0:	0800064b 	j	4000192c <main+0x200>
400019e4:	00000000 	nop

400019e8 <hf_free>:
400019e8:	27bdffe0 	addiu	sp,sp,-32
400019ec:	afb00014 	sw	s0,20(sp)
400019f0:	3c104000 	lui	s0,0x4000
400019f4:	afb10018 	sw	s1,24(sp)
400019f8:	00808825 	move	s1,a0
400019fc:	afbf001c 	sw	ra,28(sp)
40001a00:	0c0006fa 	jal	40001be8 <hf_mtxlock>
40001a04:	260442d8 	addiu	a0,s0,17112
40001a08:	8e23fffc 	lw	v1,-4(s1)
40001a0c:	3c054008 	lui	a1,0x4008
40001a10:	3c044008 	lui	a0,0x4008
40001a14:	8ca2f674 	lw	v0,-2444(a1)
40001a18:	8c86f68c 	lw	a2,-2420(a0)
40001a1c:	2404fffe 	li	a0,-2
40001a20:	00641824 	and	v1,v1,a0
40001a24:	ae23fffc 	sw	v1,-4(s1)
40001a28:	8fbf001c 	lw	ra,28(sp)
40001a2c:	8fb10018 	lw	s1,24(sp)
40001a30:	260442d8 	addiu	a0,s0,17112
40001a34:	8fb00014 	lw	s0,20(sp)
40001a38:	24420008 	addiu	v0,v0,8
40001a3c:	00431021 	addu	v0,v0,v1
40001a40:	3c034008 	lui	v1,0x4008
40001a44:	27bd0020 	addiu	sp,sp,32
40001a48:	ac66f688 	sw	a2,-2424(v1)
40001a4c:	08000710 	j	40001c40 <hf_mtxunlock>
40001a50:	aca2f674 	sw	v0,-2444(a1)

40001a54 <hf_malloc>:
40001a54:	27bdffe0 	addiu	sp,sp,-32
40001a58:	afb20018 	sw	s2,24(sp)
40001a5c:	3c124000 	lui	s2,0x4000
40001a60:	24820003 	addiu	v0,a0,3
40001a64:	afb10014 	sw	s1,20(sp)
40001a68:	264442d8 	addiu	a0,s2,17112
40001a6c:	2411fffc 	li	s1,-4
40001a70:	afb00010 	sw	s0,16(sp)
40001a74:	afbf001c 	sw	ra,28(sp)
40001a78:	0c0006fa 	jal	40001be8 <hf_mtxlock>
40001a7c:	00518824 	and	s1,v0,s1
40001a80:	3c044008 	lui	a0,0x4008
40001a84:	8c85f688 	lw	a1,-2424(a0)
40001a88:	2408fff8 	li	t0,-8
40001a8c:	26270008 	addiu	a3,s1,8
40001a90:	00a08025 	move	s0,a1
40001a94:	8ca30000 	lw	v1,0(a1)
40001a98:	10600032 	beqz	v1,40001b64 <hf_malloc+0x110>
40001a9c:	00000000 	nop
40001aa0:	8ca20004 	lw	v0,4(a1)
40001aa4:	30420001 	andi	v0,v0,0x1
40001aa8:	14400004 	bnez	v0,40001abc <hf_malloc+0x68>
40001aac:	00000000 	nop
40001ab0:	080006b3 	j	40001acc <hf_malloc+0x78>
40001ab4:	00a01825 	move	v1,a1
40001ab8:	8c630000 	lw	v1,0(v1)
40001abc:	8c620004 	lw	v0,4(v1)
40001ac0:	30420001 	andi	v0,v0,0x1
40001ac4:	1440fffc 	bnez	v0,40001ab8 <hf_malloc+0x64>
40001ac8:	00608025 	move	s0,v1
40001acc:	14400009 	bnez	v0,40001af4 <hf_malloc+0xa0>
40001ad0:	01101023 	subu	v0,t0,s0
40001ad4:	8c650000 	lw	a1,0(v1)
40001ad8:	10a00006 	beqz	a1,40001af4 <hf_malloc+0xa0>
40001adc:	01101023 	subu	v0,t0,s0
40001ae0:	8ca20004 	lw	v0,4(a1)
40001ae4:	30420001 	andi	v0,v0,0x1
40001ae8:	1040fffa 	beqz	v0,40001ad4 <hf_malloc+0x80>
40001aec:	00a01825 	move	v1,a1
40001af0:	01101023 	subu	v0,t0,s0
40001af4:	00621021 	addu	v0,v1,v0
40001af8:	0047302b 	sltu	a2,v0,a3
40001afc:	00602825 	move	a1,v1
40001b00:	ae020004 	sw	v0,4(s0)
40001b04:	14c0ffe3 	bnez	a2,40001a94 <hf_malloc+0x40>
40001b08:	ae030000 	sw	v1,0(s0)
40001b0c:	3c054008 	lui	a1,0x4008
40001b10:	8ca2f674 	lw	v0,-2444(a1)
40001b14:	02073821 	addu	a3,s0,a3
40001b18:	36260001 	ori	a2,s1,0x1
40001b1c:	2442fff8 	addiu	v0,v0,-8
40001b20:	00518823 	subu	s1,v0,s1
40001b24:	2402fff8 	li	v0,-8
40001b28:	ac90f688 	sw	s0,-2424(a0)
40001b2c:	ae060004 	sw	a2,4(s0)
40001b30:	ae070000 	sw	a3,0(s0)
40001b34:	264442d8 	addiu	a0,s2,17112
40001b38:	ace30000 	sw	v1,0(a3)
40001b3c:	ace20004 	sw	v0,4(a3)
40001b40:	0c000710 	jal	40001c40 <hf_mtxunlock>
40001b44:	acb1f674 	sw	s1,-2444(a1)
40001b48:	8fbf001c 	lw	ra,28(sp)
40001b4c:	26020008 	addiu	v0,s0,8
40001b50:	8fb20018 	lw	s2,24(sp)
40001b54:	8fb10014 	lw	s1,20(sp)
40001b58:	8fb00010 	lw	s0,16(sp)
40001b5c:	03e00008 	jr	ra
40001b60:	27bd0020 	addiu	sp,sp,32
40001b64:	0c000710 	jal	40001c40 <hf_mtxunlock>
40001b68:	264442d8 	addiu	a0,s2,17112
40001b6c:	8fbf001c 	lw	ra,28(sp)
40001b70:	8fb20018 	lw	s2,24(sp)
40001b74:	8fb10014 	lw	s1,20(sp)
40001b78:	8fb00010 	lw	s0,16(sp)
40001b7c:	00001025 	move	v0,zero
40001b80:	03e00008 	jr	ra
40001b84:	27bd0020 	addiu	sp,sp,32

40001b88 <heapinit>:
40001b88:	00801025 	move	v0,a0
40001b8c:	24a30003 	addiu	v1,a1,3
40001b90:	2404fffc 	li	a0,-4
40001b94:	00641824 	and	v1,v1,a0
40001b98:	24a5fff8 	addiu	a1,a1,-8
40001b9c:	00452821 	addu	a1,v0,a1
40001ba0:	2463fff0 	addiu	v1,v1,-16
40001ba4:	ac450000 	sw	a1,0(v0)
40001ba8:	ac430004 	sw	v1,4(v0)
40001bac:	aca00004 	sw	zero,4(a1)
40001bb0:	8c430004 	lw	v1,4(v0)
40001bb4:	aca00000 	sw	zero,0(a1)
40001bb8:	3c054008 	lui	a1,0x4008
40001bbc:	aca2f68c 	sw	v0,-2420(a1)
40001bc0:	3c044000 	lui	a0,0x4000
40001bc4:	3c054008 	lui	a1,0x4008
40001bc8:	aca2f688 	sw	v0,-2424(a1)
40001bcc:	248442d8 	addiu	a0,a0,17112
40001bd0:	3c024008 	lui	v0,0x4008
40001bd4:	080006f7 	j	40001bdc <hf_mtxinit>
40001bd8:	ac43f674 	sw	v1,-2444(v0)

40001bdc <hf_mtxinit>:
40001bdc:	ac800000 	sw	zero,0(a0)
40001be0:	03e00008 	jr	ra
40001be4:	00000000 	nop

40001be8 <hf_mtxlock>:
40001be8:	27bdffd8 	addiu	sp,sp,-40
40001bec:	afb10020 	sw	s1,32(sp)
40001bf0:	afb0001c 	sw	s0,28(sp)
40001bf4:	afbf0024 	sw	ra,36(sp)
40001bf8:	00808825 	move	s1,a0
40001bfc:	24100001 	li	s0,1
40001c00:	0c000082 	jal	40000208 <_interrupt_set>
40001c04:	00002025 	move	a0,zero
40001c08:	afa20014 	sw	v0,20(sp)
40001c0c:	8e220000 	lw	v0,0(s1)
40001c10:	afa20010 	sw	v0,16(sp)
40001c14:	ae300000 	sw	s0,0(s1)
40001c18:	8fa40014 	lw	a0,20(sp)
40001c1c:	0c000082 	jal	40000208 <_interrupt_set>
40001c20:	00000000 	nop
40001c24:	8fa20010 	lw	v0,16(sp)
40001c28:	1050fff5 	beq	v0,s0,40001c00 <hf_mtxlock+0x18>
40001c2c:	8fbf0024 	lw	ra,36(sp)
40001c30:	8fb10020 	lw	s1,32(sp)
40001c34:	8fb0001c 	lw	s0,28(sp)
40001c38:	03e00008 	jr	ra
40001c3c:	27bd0028 	addiu	sp,sp,40

40001c40 <hf_mtxunlock>:
40001c40:	ac800000 	sw	zero,0(a0)
40001c44:	03e00008 	jr	ra
40001c48:	00000000 	nop

40001c4c <panic>:
40001c4c:	27bdffe8 	addiu	sp,sp,-24
40001c50:	afb00010 	sw	s0,16(sp)
40001c54:	00808025 	move	s0,a0
40001c58:	afbf0014 	sw	ra,20(sp)
40001c5c:	0c000082 	jal	40000208 <_interrupt_set>
40001c60:	00002025 	move	a0,zero
40001c64:	3c024008 	lui	v0,0x4008
40001c68:	9445f660 	lhu	a1,-2464(v0)
40001c6c:	3c044000 	lui	a0,0x4000
40001c70:	0c0002d0 	jal	40000b40 <kprintf>
40001c74:	24843a1c 	addiu	a0,a0,14876
40001c78:	2e020011 	sltiu	v0,s0,17
40001c7c:	10400007 	beqz	v0,40001c9c <panic+0x50>
40001c80:	3c024000 	lui	v0,0x4000
40001c84:	00108080 	sll	s0,s0,0x2
40001c88:	24423c28 	addiu	v0,v0,15400
40001c8c:	00501021 	addu	v0,v0,s0
40001c90:	8c420000 	lw	v0,0(v0)
40001c94:	00400008 	jr	v0
40001c98:	00000000 	nop
40001c9c:	3c044000 	lui	a0,0x4000
40001ca0:	0c0002d0 	jal	40000b40 <kprintf>
40001ca4:	24843c04 	addiu	a0,a0,15364
40001ca8:	3c044000 	lui	a0,0x4000
40001cac:	0c000547 	jal	4000151c <printf>
40001cb0:	24843c14 	addiu	a0,a0,15380
40001cb4:	0c0001b4 	jal	400006d0 <_panic>
40001cb8:	00000000 	nop
40001cbc:	0800072f 	j	40001cbc <panic+0x70>
40001cc0:	00000000 	nop
40001cc4:	3c044000 	lui	a0,0x4000
40001cc8:	0c0002d0 	jal	40000b40 <kprintf>
40001ccc:	24843be4 	addiu	a0,a0,15332
40001cd0:	0800072b 	j	40001cac <panic+0x60>
40001cd4:	3c044000 	lui	a0,0x4000
40001cd8:	3c044000 	lui	a0,0x4000
40001cdc:	0c0002d0 	jal	40000b40 <kprintf>
40001ce0:	24843a78 	addiu	a0,a0,14968
40001ce4:	0800072b 	j	40001cac <panic+0x60>
40001ce8:	3c044000 	lui	a0,0x4000
40001cec:	3c044000 	lui	a0,0x4000
40001cf0:	0c0002d0 	jal	40000b40 <kprintf>
40001cf4:	24843ba0 	addiu	a0,a0,15264
40001cf8:	0800072b 	j	40001cac <panic+0x60>
40001cfc:	3c044000 	lui	a0,0x4000
40001d00:	3c044000 	lui	a0,0x4000
40001d04:	0c0002d0 	jal	40000b40 <kprintf>
40001d08:	24843b84 	addiu	a0,a0,15236
40001d0c:	0800072b 	j	40001cac <panic+0x60>
40001d10:	3c044000 	lui	a0,0x4000
40001d14:	3c044000 	lui	a0,0x4000
40001d18:	0c0002d0 	jal	40000b40 <kprintf>
40001d1c:	24843b60 	addiu	a0,a0,15200
40001d20:	0800072b 	j	40001cac <panic+0x60>
40001d24:	3c044000 	lui	a0,0x4000
40001d28:	3c044000 	lui	a0,0x4000
40001d2c:	0c0002d0 	jal	40000b40 <kprintf>
40001d30:	24843b40 	addiu	a0,a0,15168
40001d34:	0800072b 	j	40001cac <panic+0x60>
40001d38:	3c044000 	lui	a0,0x4000
40001d3c:	3c044000 	lui	a0,0x4000
40001d40:	0c0002d0 	jal	40000b40 <kprintf>
40001d44:	24843b20 	addiu	a0,a0,15136
40001d48:	0800072b 	j	40001cac <panic+0x60>
40001d4c:	3c044000 	lui	a0,0x4000
40001d50:	3c044000 	lui	a0,0x4000
40001d54:	0c0002d0 	jal	40000b40 <kprintf>
40001d58:	24843b08 	addiu	a0,a0,15112
40001d5c:	0800072b 	j	40001cac <panic+0x60>
40001d60:	3c044000 	lui	a0,0x4000
40001d64:	3c044000 	lui	a0,0x4000
40001d68:	0c0002d0 	jal	40000b40 <kprintf>
40001d6c:	24843ad4 	addiu	a0,a0,15060
40001d70:	0800072b 	j	40001cac <panic+0x60>
40001d74:	3c044000 	lui	a0,0x4000
40001d78:	3c044000 	lui	a0,0x4000
40001d7c:	0c0002d0 	jal	40000b40 <kprintf>
40001d80:	24843aec 	addiu	a0,a0,15084
40001d84:	0800072b 	j	40001cac <panic+0x60>
40001d88:	3c044000 	lui	a0,0x4000
40001d8c:	3c044000 	lui	a0,0x4000
40001d90:	0c0002d0 	jal	40000b40 <kprintf>
40001d94:	24843abc 	addiu	a0,a0,15036
40001d98:	0800072b 	j	40001cac <panic+0x60>
40001d9c:	3c044000 	lui	a0,0x4000
40001da0:	3c044000 	lui	a0,0x4000
40001da4:	0c0002d0 	jal	40000b40 <kprintf>
40001da8:	24843aac 	addiu	a0,a0,15020
40001dac:	0800072b 	j	40001cac <panic+0x60>
40001db0:	3c044000 	lui	a0,0x4000
40001db4:	3c044000 	lui	a0,0x4000
40001db8:	0c0002d0 	jal	40000b40 <kprintf>
40001dbc:	24843a8c 	addiu	a0,a0,14988
40001dc0:	0800072b 	j	40001cac <panic+0x60>
40001dc4:	3c044000 	lui	a0,0x4000
40001dc8:	3c044000 	lui	a0,0x4000
40001dcc:	0c0002d0 	jal	40000b40 <kprintf>
40001dd0:	24843a68 	addiu	a0,a0,14952
40001dd4:	0800072b 	j	40001cac <panic+0x60>
40001dd8:	3c044000 	lui	a0,0x4000
40001ddc:	3c044000 	lui	a0,0x4000
40001de0:	0c0002d0 	jal	40000b40 <kprintf>
40001de4:	24843a4c 	addiu	a0,a0,14924
40001de8:	0800072b 	j	40001cac <panic+0x60>
40001dec:	3c044000 	lui	a0,0x4000
40001df0:	3c044000 	lui	a0,0x4000
40001df4:	0c0002d0 	jal	40000b40 <kprintf>
40001df8:	24843a38 	addiu	a0,a0,14904
40001dfc:	0800072b 	j	40001cac <panic+0x60>
40001e00:	3c044000 	lui	a0,0x4000
40001e04:	3c044000 	lui	a0,0x4000
40001e08:	0c0002d0 	jal	40000b40 <kprintf>
40001e0c:	24843bb4 	addiu	a0,a0,15284
40001e10:	0800072b 	j	40001cac <panic+0x60>
40001e14:	3c044000 	lui	a0,0x4000

40001e18 <hf_schedlock>:
40001e18:	27bdffe8 	addiu	sp,sp,-24
40001e1c:	afb00010 	sw	s0,16(sp)
40001e20:	afbf0014 	sw	ra,20(sp)
40001e24:	0c000181 	jal	40000604 <_read_us>
40001e28:	00808025 	move	s0,a0
40001e2c:	3c044000 	lui	a0,0x4000
40001e30:	00602825 	move	a1,v1
40001e34:	0c000346 	jal	40000d18 <dprintf>
40001e38:	24843c6c 	addiu	a0,a0,15468
40001e3c:	16000007 	bnez	s0,40001e5c <hf_schedlock+0x44>
40001e40:	8fbf0014 	lw	ra,20(sp)
40001e44:	24030001 	li	v1,1
40001e48:	3c024008 	lui	v0,0x4008
40001e4c:	8fb00010 	lw	s0,16(sp)
40001e50:	a443f680 	sh	v1,-2432(v0)
40001e54:	03e00008 	jr	ra
40001e58:	27bd0018 	addiu	sp,sp,24
40001e5c:	3c024008 	lui	v0,0x4008
40001e60:	8fb00010 	lw	s0,16(sp)
40001e64:	a440f680 	sh	zero,-2432(v0)
40001e68:	03e00008 	jr	ra
40001e6c:	27bd0018 	addiu	sp,sp,24

40001e70 <hf_queue_create>:
40001e70:	27bdffe0 	addiu	sp,sp,-32
40001e74:	afb10018 	sw	s1,24(sp)
40001e78:	00808825 	move	s1,a0
40001e7c:	afb00014 	sw	s0,20(sp)
40001e80:	afbf001c 	sw	ra,28(sp)
40001e84:	0c000695 	jal	40001a54 <hf_malloc>
40001e88:	24040014 	li	a0,20
40001e8c:	10400010 	beqz	v0,40001ed0 <hf_queue_create+0x60>
40001e90:	00408025 	move	s0,v0
40001e94:	26240001 	addiu	a0,s1,1
40001e98:	ac440000 	sw	a0,0(v0)
40001e9c:	0c000695 	jal	40001a54 <hf_malloc>
40001ea0:	00042080 	sll	a0,a0,0x2
40001ea4:	1040000c 	beqz	v0,40001ed8 <hf_queue_create+0x68>
40001ea8:	ae020010 	sw	v0,16(s0)
40001eac:	ae00000c 	sw	zero,12(s0)
40001eb0:	ae000008 	sw	zero,8(s0)
40001eb4:	ae000004 	sw	zero,4(s0)
40001eb8:	02001025 	move	v0,s0
40001ebc:	8fbf001c 	lw	ra,28(sp)
40001ec0:	8fb10018 	lw	s1,24(sp)
40001ec4:	8fb00014 	lw	s0,20(sp)
40001ec8:	03e00008 	jr	ra
40001ecc:	27bd0020 	addiu	sp,sp,32
40001ed0:	080007af 	j	40001ebc <hf_queue_create+0x4c>
40001ed4:	00001025 	move	v0,zero
40001ed8:	0c00067a 	jal	400019e8 <hf_free>
40001edc:	02002025 	move	a0,s0
40001ee0:	080007af 	j	40001ebc <hf_queue_create+0x4c>
40001ee4:	00001025 	move	v0,zero

40001ee8 <hf_queue_count>:
40001ee8:	03e00008 	jr	ra
40001eec:	8c820004 	lw	v0,4(a0)

40001ef0 <hf_queue_addtail>:
40001ef0:	8c820000 	lw	v0,0(a0)
40001ef4:	1040001e 	beqz	v0,40001f70 <hf_queue_addtail+0x80>
40001ef8:	00000000 	nop
40001efc:	27bdffe0 	addiu	sp,sp,-32
40001f00:	afb10014 	sw	s1,20(sp)
40001f04:	8c91000c 	lw	s1,12(a0)
40001f08:	afb20018 	sw	s2,24(sp)
40001f0c:	afb00010 	sw	s0,16(sp)
40001f10:	00a09025 	move	s2,a1
40001f14:	00808025 	move	s0,a0
40001f18:	00402825 	move	a1,v0
40001f1c:	afbf001c 	sw	ra,28(sp)
40001f20:	0c000597 	jal	4000165c <__modsi3>
40001f24:	26240001 	addiu	a0,s1,1
40001f28:	00402825 	move	a1,v0
40001f2c:	8e020008 	lw	v0,8(s0)
40001f30:	10450011 	beq	v0,a1,40001f78 <hf_queue_addtail+0x88>
40001f34:	00118880 	sll	s1,s1,0x2
40001f38:	8e030004 	lw	v1,4(s0)
40001f3c:	8e040010 	lw	a0,16(s0)
40001f40:	24630001 	addiu	v1,v1,1
40001f44:	00918821 	addu	s1,a0,s1
40001f48:	ae320000 	sw	s2,0(s1)
40001f4c:	00001025 	move	v0,zero
40001f50:	ae05000c 	sw	a1,12(s0)
40001f54:	ae030004 	sw	v1,4(s0)
40001f58:	8fbf001c 	lw	ra,28(sp)
40001f5c:	8fb20018 	lw	s2,24(sp)
40001f60:	8fb10014 	lw	s1,20(sp)
40001f64:	8fb00010 	lw	s0,16(sp)
40001f68:	03e00008 	jr	ra
40001f6c:	27bd0020 	addiu	sp,sp,32
40001f70:	03e00008 	jr	ra
40001f74:	2402ffff 	li	v0,-1
40001f78:	080007d6 	j	40001f58 <hf_queue_addtail+0x68>
40001f7c:	2402ffff 	li	v0,-1

40001f80 <hf_queue_remhead>:
40001f80:	8c850000 	lw	a1,0(a0)
40001f84:	10a00019 	beqz	a1,40001fec <hf_queue_remhead+0x6c>
40001f88:	00000000 	nop
40001f8c:	8c820008 	lw	v0,8(a0)
40001f90:	8c83000c 	lw	v1,12(a0)
40001f94:	10430015 	beq	v0,v1,40001fec <hf_queue_remhead+0x6c>
40001f98:	00023080 	sll	a2,v0,0x2
40001f9c:	8c830010 	lw	v1,16(a0)
40001fa0:	27bdffe0 	addiu	sp,sp,-32
40001fa4:	afb00014 	sw	s0,20(sp)
40001fa8:	00808025 	move	s0,a0
40001fac:	24440001 	addiu	a0,v0,1
40001fb0:	00661021 	addu	v0,v1,a2
40001fb4:	afbf001c 	sw	ra,28(sp)
40001fb8:	afb10018 	sw	s1,24(sp)
40001fbc:	0c000597 	jal	4000165c <__modsi3>
40001fc0:	8c510000 	lw	s1,0(v0)
40001fc4:	8e030004 	lw	v1,4(s0)
40001fc8:	8fbf001c 	lw	ra,28(sp)
40001fcc:	ae020008 	sw	v0,8(s0)
40001fd0:	2463ffff 	addiu	v1,v1,-1
40001fd4:	02201025 	move	v0,s1
40001fd8:	ae030004 	sw	v1,4(s0)
40001fdc:	8fb10018 	lw	s1,24(sp)
40001fe0:	8fb00014 	lw	s0,20(sp)
40001fe4:	03e00008 	jr	ra
40001fe8:	27bd0020 	addiu	sp,sp,32
40001fec:	03e00008 	jr	ra
40001ff0:	00001025 	move	v0,zero

40001ff4 <hf_queue_get>:
40001ff4:	8c830000 	lw	v1,0(a0)
40001ff8:	10600018 	beqz	v1,4000205c <hf_queue_get+0x68>
40001ffc:	00000000 	nop
40002000:	8c820004 	lw	v0,4(a0)
40002004:	00a2102a 	slt	v0,a1,v0
40002008:	10400014 	beqz	v0,4000205c <hf_queue_get+0x68>
4000200c:	00000000 	nop
40002010:	8c860008 	lw	a2,8(a0)
40002014:	8c82000c 	lw	v0,12(a0)
40002018:	10c20010 	beq	a2,v0,4000205c <hf_queue_get+0x68>
4000201c:	00000000 	nop
40002020:	27bdffe8 	addiu	sp,sp,-24
40002024:	afb00010 	sw	s0,16(sp)
40002028:	00808025 	move	s0,a0
4000202c:	00a62021 	addu	a0,a1,a2
40002030:	afbf0014 	sw	ra,20(sp)
40002034:	0c000597 	jal	4000165c <__modsi3>
40002038:	00602825 	move	a1,v1
4000203c:	8e030010 	lw	v1,16(s0)
40002040:	8fbf0014 	lw	ra,20(sp)
40002044:	00021080 	sll	v0,v0,0x2
40002048:	00621821 	addu	v1,v1,v0
4000204c:	8c620000 	lw	v0,0(v1)
40002050:	8fb00010 	lw	s0,16(sp)
40002054:	03e00008 	jr	ra
40002058:	27bd0018 	addiu	sp,sp,24
4000205c:	03e00008 	jr	ra
40002060:	00001025 	move	v0,zero

40002064 <hf_queue_swap>:
40002064:	27bdffd8 	addiu	sp,sp,-40
40002068:	afb3001c 	sw	s3,28(sp)
4000206c:	8c930000 	lw	s3,0(a0)
40002070:	afbf0024 	sw	ra,36(sp)
40002074:	afb40020 	sw	s4,32(sp)
40002078:	afb20018 	sw	s2,24(sp)
4000207c:	afb10014 	sw	s1,20(sp)
40002080:	12600027 	beqz	s3,40002120 <hf_queue_swap+0xbc>
40002084:	afb00010 	sw	s0,16(sp)
40002088:	8c820004 	lw	v0,4(a0)
4000208c:	00a01825 	move	v1,a1
40002090:	00a2282a 	slt	a1,a1,v0
40002094:	10a00022 	beqz	a1,40002120 <hf_queue_swap+0xbc>
40002098:	00c2102a 	slt	v0,a2,v0
4000209c:	10400021 	beqz	v0,40002124 <hf_queue_swap+0xc0>
400020a0:	8fbf0024 	lw	ra,36(sp)
400020a4:	8c940008 	lw	s4,8(a0)
400020a8:	8c82000c 	lw	v0,12(a0)
400020ac:	1282001d 	beq	s4,v0,40002124 <hf_queue_swap+0xc0>
400020b0:	00808025 	move	s0,a0
400020b4:	8c920010 	lw	s2,16(a0)
400020b8:	02602825 	move	a1,s3
400020bc:	00742021 	addu	a0,v1,s4
400020c0:	0c000597 	jal	4000165c <__modsi3>
400020c4:	00c08825 	move	s1,a2
400020c8:	00021080 	sll	v0,v0,0x2
400020cc:	02342021 	addu	a0,s1,s4
400020d0:	02602825 	move	a1,s3
400020d4:	0c000597 	jal	4000165c <__modsi3>
400020d8:	02428821 	addu	s1,s2,v0
400020dc:	00022080 	sll	a0,v0,0x2
400020e0:	02449021 	addu	s2,s2,a0
400020e4:	8e430000 	lw	v1,0(s2)
400020e8:	8e250000 	lw	a1,0(s1)
400020ec:	8fbf0024 	lw	ra,36(sp)
400020f0:	ae230000 	sw	v1,0(s1)
400020f4:	8e030010 	lw	v1,16(s0)
400020f8:	8fb40020 	lw	s4,32(sp)
400020fc:	8fb3001c 	lw	s3,28(sp)
40002100:	00641821 	addu	v1,v1,a0
40002104:	8fb20018 	lw	s2,24(sp)
40002108:	8fb10014 	lw	s1,20(sp)
4000210c:	8fb00010 	lw	s0,16(sp)
40002110:	00001025 	move	v0,zero
40002114:	ac650000 	sw	a1,0(v1)
40002118:	03e00008 	jr	ra
4000211c:	27bd0028 	addiu	sp,sp,40
40002120:	8fbf0024 	lw	ra,36(sp)
40002124:	8fb40020 	lw	s4,32(sp)
40002128:	8fb3001c 	lw	s3,28(sp)
4000212c:	8fb20018 	lw	s2,24(sp)
40002130:	8fb10014 	lw	s1,20(sp)
40002134:	8fb00010 	lw	s0,16(sp)
40002138:	2402ffff 	li	v0,-1
4000213c:	03e00008 	jr	ra
40002140:	27bd0028 	addiu	sp,sp,40

40002144 <task>:
40002144:	27bdffd0 	addiu	sp,sp,-48
40002148:	afbf002c 	sw	ra,44(sp)
4000214c:	afb40028 	sw	s4,40(sp)
40002150:	afb20020 	sw	s2,32(sp)
40002154:	afb1001c 	sw	s1,28(sp)
40002158:	afb00018 	sw	s0,24(sp)
4000215c:	0c000ac0 	jal	40002b00 <hf_selfid>
40002160:	afb30024 	sw	s3,36(sp)
40002164:	0c000ace 	jal	40002b38 <hf_selfname>
40002168:	00408025 	move	s0,v0
4000216c:	02002025 	move	a0,s0
40002170:	0c000adc 	jal	40002b70 <hf_jobs>
40002174:	00409025 	move	s2,v0
40002178:	02002025 	move	a0,s0
4000217c:	00408825 	move	s1,v0
40002180:	0c000b06 	jal	40002c18 <hf_dlm>
40002184:	3c144000 	lui	s4,0x4000
40002188:	afa20010 	sw	v0,16(sp)
4000218c:	26843cd0 	addiu	a0,s4,15568
40002190:	02402825 	move	a1,s2
40002194:	02003025 	move	a2,s0
40002198:	0c000547 	jal	4000151c <printf>
4000219c:	02203825 	move	a3,s1
400021a0:	26943cd0 	addiu	s4,s4,15568
400021a4:	0c000adc 	jal	40002b70 <hf_jobs>
400021a8:	02002025 	move	a0,s0
400021ac:	0c000ace 	jal	40002b38 <hf_selfname>
400021b0:	00408825 	move	s1,v0
400021b4:	02002025 	move	a0,s0
400021b8:	0c000adc 	jal	40002b70 <hf_jobs>
400021bc:	00409825 	move	s3,v0
400021c0:	02002025 	move	a0,s0
400021c4:	0c000b06 	jal	40002c18 <hf_dlm>
400021c8:	00409025 	move	s2,v0
400021cc:	afa20010 	sw	v0,16(sp)
400021d0:	02802025 	move	a0,s4
400021d4:	02602825 	move	a1,s3
400021d8:	02003025 	move	a2,s0
400021dc:	0c000547 	jal	4000151c <printf>
400021e0:	02403825 	move	a3,s2
400021e4:	0c000adc 	jal	40002b70 <hf_jobs>
400021e8:	02002025 	move	a0,s0
400021ec:	1051fffd 	beq	v0,s1,400021e4 <task+0xa0>
400021f0:	00000000 	nop
400021f4:	08000869 	j	400021a4 <task+0x60>
400021f8:	00000000 	nop

400021fc <genAPTask>:
400021fc:	27bdffd8 	addiu	sp,sp,-40
40002200:	afb1001c 	sw	s1,28(sp)
40002204:	afb00018 	sw	s0,24(sp)
40002208:	3c114000 	lui	s1,0x4000
4000220c:	3c104000 	lui	s0,0x4000
40002210:	afb20020 	sw	s2,32(sp)
40002214:	afbf0024 	sw	ra,36(sp)
40002218:	26313ce4 	addiu	s1,s1,15588
4000221c:	24120800 	li	s2,2048
40002220:	26102144 	addiu	s0,s0,8516
40002224:	0c000532 	jal	400014c8 <random>
40002228:	00000000 	nop
4000222c:	00402025 	move	a0,v0
40002230:	0c000597 	jal	4000165c <__modsi3>
40002234:	240501c2 	li	a1,450
40002238:	0c0000b8 	jal	400002e0 <delay_ms>
4000223c:	24440032 	addiu	a0,v0,50
40002240:	afb10010 	sw	s1,16(sp)
40002244:	afb20014 	sw	s2,20(sp)
40002248:	02002025 	move	a0,s0
4000224c:	00002825 	move	a1,zero
40002250:	24060003 	li	a2,3
40002254:	0c000b23 	jal	40002c8c <hf_spawn>
40002258:	00003825 	move	a3,zero
4000225c:	08000889 	j	40002224 <genAPTask+0x28>
40002260:	00000000 	nop

40002264 <app_main>:
40002264:	27bdffd8 	addiu	sp,sp,-40
40002268:	3c024000 	lui	v0,0x4000
4000226c:	24423cec 	addiu	v0,v0,15596
40002270:	afb10020 	sw	s1,32(sp)
40002274:	afb0001c 	sw	s0,28(sp)
40002278:	3c114000 	lui	s1,0x4000
4000227c:	24100800 	li	s0,2048
40002280:	26242144 	addiu	a0,s1,8516
40002284:	afb00014 	sw	s0,20(sp)
40002288:	24050004 	li	a1,4
4000228c:	24060001 	li	a2,1
40002290:	afa20010 	sw	v0,16(sp)
40002294:	afbf0024 	sw	ra,36(sp)
40002298:	0c000b23 	jal	40002c8c <hf_spawn>
4000229c:	24070004 	li	a3,4
400022a0:	3c024000 	lui	v0,0x4000
400022a4:	24423cf8 	addiu	v0,v0,15608
400022a8:	26242144 	addiu	a0,s1,8516
400022ac:	afb00014 	sw	s0,20(sp)
400022b0:	24050008 	li	a1,8
400022b4:	24060002 	li	a2,2
400022b8:	24070008 	li	a3,8
400022bc:	0c000b23 	jal	40002c8c <hf_spawn>
400022c0:	afa20010 	sw	v0,16(sp)
400022c4:	3c024000 	lui	v0,0x4000
400022c8:	24423d04 	addiu	v0,v0,15620
400022cc:	3c044000 	lui	a0,0x4000
400022d0:	afb00014 	sw	s0,20(sp)
400022d4:	afa20010 	sw	v0,16(sp)
400022d8:	248421fc 	addiu	a0,a0,8700
400022dc:	00002825 	move	a1,zero
400022e0:	00003025 	move	a2,zero
400022e4:	0c000b23 	jal	40002c8c <hf_spawn>
400022e8:	00003825 	move	a3,zero
400022ec:	8fbf0024 	lw	ra,36(sp)
400022f0:	8fb10020 	lw	s1,32(sp)
400022f4:	8fb0001c 	lw	s0,28(sp)
400022f8:	03e00008 	jr	ra
400022fc:	27bd0028 	addiu	sp,sp,40

40002300 <run_queue_next>:
40002300:	27bdffe0 	addiu	sp,sp,-32
40002304:	afb00014 	sw	s0,20(sp)
40002308:	3c104008 	lui	s0,0x4008
4000230c:	8e04f678 	lw	a0,-2440(s0)
40002310:	afb10018 	sw	s1,24(sp)
40002314:	afbf001c 	sw	ra,28(sp)
40002318:	0c0007e0 	jal	40001f80 <hf_queue_remhead>
4000231c:	3c114008 	lui	s1,0x4008
40002320:	00402825 	move	a1,v0
40002324:	1040000e 	beqz	v0,40002360 <run_queue_next+0x60>
40002328:	ae22f664 	sw	v0,-2460(s1)
4000232c:	0c0007bc 	jal	40001ef0 <hf_queue_addtail>
40002330:	8e04f678 	lw	a0,-2440(s0)
40002334:	14400005 	bnez	v0,4000234c <run_queue_next+0x4c>
40002338:	8fbf001c 	lw	ra,28(sp)
4000233c:	8fb10018 	lw	s1,24(sp)
40002340:	8fb00014 	lw	s0,20(sp)
40002344:	03e00008 	jr	ra
40002348:	27bd0020 	addiu	sp,sp,32
4000234c:	8fb10018 	lw	s1,24(sp)
40002350:	8fb00014 	lw	s0,20(sp)
40002354:	24040009 	li	a0,9
40002358:	08000713 	j	40001c4c <panic>
4000235c:	27bd0020 	addiu	sp,sp,32
40002360:	0c000713 	jal	40001c4c <panic>
40002364:	24040005 	li	a0,5
40002368:	080008cb 	j	4000232c <run_queue_next+0x2c>
4000236c:	8e25f664 	lw	a1,-2460(s1)

40002370 <dispatch_isr>:
40002370:	27bdffc0 	addiu	sp,sp,-64
40002374:	afbf003c 	sw	ra,60(sp)
40002378:	afb60038 	sw	s6,56(sp)
4000237c:	afb50034 	sw	s5,52(sp)
40002380:	afb40030 	sw	s4,48(sp)
40002384:	afb3002c 	sw	s3,44(sp)
40002388:	afb20028 	sw	s2,40(sp)
4000238c:	afb10024 	sw	s1,36(sp)
40002390:	0c000181 	jal	40000604 <_read_us>
40002394:	afb00020 	sw	s0,32(sp)
40002398:	3c044000 	lui	a0,0x4000
4000239c:	00602825 	move	a1,v1
400023a0:	0c000346 	jal	40000d18 <dprintf>
400023a4:	24843d10 	addiu	a0,a0,15632
400023a8:	0c0001a5 	jal	40000694 <_timer_reset>
400023ac:	00000000 	nop
400023b0:	3c024008 	lui	v0,0x4008
400023b4:	9442f680 	lhu	v0,-2432(v0)
400023b8:	1440000b 	bnez	v0,400023e8 <dispatch_isr+0x78>
400023bc:	3c144008 	lui	s4,0x4008
400023c0:	8fbf003c 	lw	ra,60(sp)
400023c4:	8fb60038 	lw	s6,56(sp)
400023c8:	8fb50034 	lw	s5,52(sp)
400023cc:	8fb40030 	lw	s4,48(sp)
400023d0:	8fb3002c 	lw	s3,44(sp)
400023d4:	8fb20028 	lw	s2,40(sp)
400023d8:	8fb10024 	lw	s1,36(sp)
400023dc:	8fb00020 	lw	s0,32(sp)
400023e0:	03e00008 	jr	ra
400023e4:	27bd0040 	addiu	sp,sp,64
400023e8:	9682f660 	lhu	v0,-2464(s4)
400023ec:	3c054000 	lui	a1,0x4000
400023f0:	24a542dc 	addiu	a1,a1,17116
400023f4:	00022140 	sll	a0,v0,0x5
400023f8:	000218c0 	sll	v1,v0,0x3
400023fc:	00641821 	addu	v1,v1,a0
40002400:	00621023 	subu	v0,v1,v0
40002404:	00021080 	sll	v0,v0,0x2
40002408:	00a22021 	addu	a0,a1,v0
4000240c:	00801025 	move	v0,a0
40002410:	3c134008 	lui	s3,0x4008
40002414:	2484003c 	addiu	a0,a0,60
40002418:	0c000088 	jal	40000220 <_context_save>
4000241c:	ae62f664 	sw	v0,-2460(s3)
40002420:	1440ffe7 	bnez	v0,400023c0 <dispatch_isr+0x50>
40002424:	8e62f664 	lw	v0,-2460(s3)
40002428:	24030002 	li	v1,2
4000242c:	90440016 	lbu	a0,22(v0)
40002430:	10830059 	beq	a0,v1,40002598 <dispatch_isr+0x228>
40002434:	24030001 	li	v1,1
40002438:	8c420090 	lw	v0,144(v0)
4000243c:	8c430000 	lw	v1,0(v0)
40002440:	3c02b00b 	lui	v0,0xb00b
40002444:	3442b00b 	ori	v0,v0,0xb00b
40002448:	10620004 	beq	v1,v0,4000245c <dispatch_isr+0xec>
4000244c:	3c024008 	lui	v0,0x4008
40002450:	0c000713 	jal	40001c4c <panic>
40002454:	24040002 	li	a0,2
40002458:	3c024008 	lui	v0,0x4008
4000245c:	9442f66c 	lhu	v0,-2452(v0)
40002460:	10400043 	beqz	v0,40002570 <dispatch_isr+0x200>
40002464:	24040003 	li	a0,3
40002468:	3c114008 	lui	s1,0x4008
4000246c:	8e24f684 	lw	a0,-2428(s1)
40002470:	0c0007ba 	jal	40001ee8 <hf_queue_count>
40002474:	00008025 	move	s0,zero
40002478:	1840001e 	blez	v0,400024f4 <dispatch_isr+0x184>
4000247c:	00409025 	move	s2,v0
40002480:	3c164008 	lui	s6,0x4008
40002484:	0800092a 	j	400024a8 <dispatch_isr+0x138>
40002488:	3c154008 	lui	s5,0x4008
4000248c:	0c0007bc 	jal	40001ef0 <hf_queue_addtail>
40002490:	8ea4f67c 	lw	a0,-2436(s5)
40002494:	1440004a 	bnez	v0,400025c0 <dispatch_isr+0x250>
40002498:	00000000 	nop
4000249c:	26100001 	addiu	s0,s0,1
400024a0:	12120014 	beq	s0,s2,400024f4 <dispatch_isr+0x184>
400024a4:	00000000 	nop
400024a8:	0c0007e0 	jal	40001f80 <hf_queue_remhead>
400024ac:	8e24f684 	lw	a0,-2428(s1)
400024b0:	10400047 	beqz	v0,400025d0 <dispatch_isr+0x260>
400024b4:	00402825 	move	a1,v0
400024b8:	8ca3001c 	lw	v1,28(a1)
400024bc:	2463ffff 	addiu	v1,v1,-1
400024c0:	14600037 	bnez	v1,400025a0 <dispatch_isr+0x230>
400024c4:	aca3001c 	sw	v1,28(a1)
400024c8:	94a20030 	lhu	v0,48(a1)
400024cc:	1440ffef 	bnez	v0,4000248c <dispatch_isr+0x11c>
400024d0:	00000000 	nop
400024d4:	0c0007bc 	jal	40001ef0 <hf_queue_addtail>
400024d8:	8ec4f678 	lw	a0,-2440(s6)
400024dc:	1040ffef 	beqz	v0,4000249c <dispatch_isr+0x12c>
400024e0:	24040009 	li	a0,9
400024e4:	0c000713 	jal	40001c4c <panic>
400024e8:	26100001 	addiu	s0,s0,1
400024ec:	1612ffee 	bne	s0,s2,400024a8 <dispatch_isr+0x138>
400024f0:	00000000 	nop
400024f4:	3c104008 	lui	s0,0x4008
400024f8:	8e02f644 	lw	v0,-2492(s0)
400024fc:	3c124008 	lui	s2,0x4008
40002500:	0040f809 	jalr	v0
40002504:	2610f644 	addiu	s0,s0,-2492
40002508:	3051ffff 	andi	s1,v0,0xffff
4000250c:	12200035 	beqz	s1,400025e4 <dispatch_isr+0x274>
40002510:	a691f660 	sh	s1,-2464(s4)
40002514:	8e62f664 	lw	v0,-2460(s3)
40002518:	8e030010 	lw	v1,16(s0)
4000251c:	24040002 	li	a0,2
40002520:	94550030 	lhu	s5,48(v0)
40002524:	94540032 	lhu	s4,50(v0)
40002528:	94520034 	lhu	s2,52(v0)
4000252c:	24630001 	addiu	v1,v1,1
40002530:	a0440016 	sb	a0,22(v0)
40002534:	0c000181 	jal	40000604 <_read_us>
40002538:	ae030010 	sw	v1,16(s0)
4000253c:	3c044000 	lui	a0,0x4000
40002540:	24843d20 	addiu	a0,a0,15648
40002544:	02202825 	move	a1,s1
40002548:	02a03025 	move	a2,s5
4000254c:	02803825 	move	a3,s4
40002550:	afa30014 	sw	v1,20(sp)
40002554:	0c000346 	jal	40000d18 <dprintf>
40002558:	afb20010 	sw	s2,16(sp)
4000255c:	8e64f664 	lw	a0,-2460(s3)
40002560:	24050001 	li	a1,1
40002564:	0c000097 	jal	4000025c <_context_restore>
40002568:	2484003c 	addiu	a0,a0,60
4000256c:	240400ff 	li	a0,255
40002570:	8fbf003c 	lw	ra,60(sp)
40002574:	8fb60038 	lw	s6,56(sp)
40002578:	8fb50034 	lw	s5,52(sp)
4000257c:	8fb40030 	lw	s4,48(sp)
40002580:	8fb3002c 	lw	s3,44(sp)
40002584:	8fb20028 	lw	s2,40(sp)
40002588:	8fb10024 	lw	s1,36(sp)
4000258c:	8fb00020 	lw	s0,32(sp)
40002590:	08000713 	j	40001c4c <panic>
40002594:	27bd0040 	addiu	sp,sp,64
40002598:	0800090e 	j	40002438 <dispatch_isr+0xc8>
4000259c:	a0430016 	sb	v1,22(v0)
400025a0:	0c0007bc 	jal	40001ef0 <hf_queue_addtail>
400025a4:	8e24f684 	lw	a0,-2428(s1)
400025a8:	1040ffbc 	beqz	v0,4000249c <dispatch_isr+0x12c>
400025ac:	00000000 	nop
400025b0:	0c000713 	jal	40001c4c <panic>
400025b4:	2404000a 	li	a0,10
400025b8:	08000928 	j	400024a0 <dispatch_isr+0x130>
400025bc:	26100001 	addiu	s0,s0,1
400025c0:	0c000713 	jal	40001c4c <panic>
400025c4:	2404000b 	li	a0,11
400025c8:	08000928 	j	400024a0 <dispatch_isr+0x130>
400025cc:	26100001 	addiu	s0,s0,1
400025d0:	24040007 	li	a0,7
400025d4:	0c000713 	jal	40001c4c <panic>
400025d8:	afa20018 	sw	v0,24(sp)
400025dc:	0800092e 	j	400024b8 <dispatch_isr+0x148>
400025e0:	8fa50018 	lw	a1,24(sp)
400025e4:	8e020004 	lw	v0,4(s0)
400025e8:	0040f809 	jalr	v0
400025ec:	00000000 	nop
400025f0:	3051ffff 	andi	s1,v0,0xffff
400025f4:	1620ffc7 	bnez	s1,40002514 <dispatch_isr+0x1a4>
400025f8:	a651f660 	sh	s1,-2464(s2)
400025fc:	8e020008 	lw	v0,8(s0)
40002600:	0040f809 	jalr	v0
40002604:	00000000 	nop
40002608:	3051ffff 	andi	s1,v0,0xffff
4000260c:	08000945 	j	40002514 <dispatch_isr+0x1a4>
40002610:	a651f660 	sh	s1,-2464(s2)

40002614 <sched_priorityrr>:
40002614:	3c024008 	lui	v0,0x4008
40002618:	8c44f678 	lw	a0,-2440(v0)
4000261c:	27bdffd0 	addiu	sp,sp,-48
40002620:	afb2001c 	sw	s2,28(sp)
40002624:	afbf002c 	sw	ra,44(sp)
40002628:	afb50028 	sw	s5,40(sp)
4000262c:	afb40024 	sw	s4,36(sp)
40002630:	afb30020 	sw	s3,32(sp)
40002634:	afb10018 	sw	s1,24(sp)
40002638:	0c0007ba 	jal	40001ee8 <hf_queue_count>
4000263c:	afb00014 	sw	s0,20(sp)
40002640:	1040004b 	beqz	v0,40002770 <sched_priorityrr+0x15c>
40002644:	00409025 	move	s2,v0
40002648:	0c0008c0 	jal	40002300 <run_queue_next>
4000264c:	00000000 	nop
40002650:	1a40004b 	blez	s2,40002780 <sched_priorityrr+0x16c>
40002654:	241400ff 	li	s4,255
40002658:	00008825 	move	s1,zero
4000265c:	00008025 	move	s0,zero
40002660:	3c134008 	lui	s3,0x4008
40002664:	24150003 	li	s5,3
40002668:	0c0008c0 	jal	40002300 <run_queue_next>
4000266c:	26100001 	addiu	s0,s0,1
40002670:	8e63f664 	lw	v1,-2460(s3)
40002674:	90640019 	lbu	a0,25(v1)
40002678:	10800022 	beqz	a0,40002704 <sched_priorityrr+0xf0>
4000267c:	00000000 	nop
40002680:	90620016 	lbu	v0,22(v1)
40002684:	1455002b 	bne	v0,s5,40002734 <sched_priorityrr+0x120>
40002688:	00000000 	nop
4000268c:	1612fff6 	bne	s0,s2,40002668 <sched_priorityrr+0x54>
40002690:	00000000 	nop
40002694:	00008025 	move	s0,zero
40002698:	0c0008c0 	jal	40002300 <run_queue_next>
4000269c:	26100001 	addiu	s0,s0,1
400026a0:	8e62f664 	lw	v0,-2460(s3)
400026a4:	12220005 	beq	s1,v0,400026bc <sched_priorityrr+0xa8>
400026a8:	0212202a 	slt	a0,s0,s2
400026ac:	90430018 	lbu	v1,24(v0)
400026b0:	92250018 	lbu	a1,24(s1)
400026b4:	00651823 	subu	v1,v1,a1
400026b8:	a0430018 	sb	v1,24(v0)
400026bc:	1480fff6 	bnez	a0,40002698 <sched_priorityrr+0x84>
400026c0:	00000000 	nop
400026c4:	92220017 	lbu	v0,23(s1)
400026c8:	8e230028 	lw	v1,40(s1)
400026cc:	ae71f664 	sw	s1,-2460(s3)
400026d0:	a2220018 	sb	v0,24(s1)
400026d4:	8fbf002c 	lw	ra,44(sp)
400026d8:	24630001 	addiu	v1,v1,1
400026dc:	96220000 	lhu	v0,0(s1)
400026e0:	ae230028 	sw	v1,40(s1)
400026e4:	8fb50028 	lw	s5,40(sp)
400026e8:	8fb40024 	lw	s4,36(sp)
400026ec:	8fb30020 	lw	s3,32(sp)
400026f0:	8fb2001c 	lw	s2,28(sp)
400026f4:	8fb10018 	lw	s1,24(sp)
400026f8:	8fb00014 	lw	s0,20(sp)
400026fc:	03e00008 	jr	ra
40002700:	27bd0030 	addiu	sp,sp,48
40002704:	90640018 	lbu	a0,24(v1)
40002708:	0094102b 	sltu	v0,a0,s4
4000270c:	1040ffdf 	beqz	v0,4000268c <sched_priorityrr+0x78>
40002710:	00000000 	nop
40002714:	90620016 	lbu	v0,22(v1)
40002718:	1055ffdc 	beq	v0,s5,4000268c <sched_priorityrr+0x78>
4000271c:	00000000 	nop
40002720:	00608825 	move	s1,v1
40002724:	1612ffd0 	bne	s0,s2,40002668 <sched_priorityrr+0x54>
40002728:	0080a025 	move	s4,a0
4000272c:	080009a6 	j	40002698 <sched_priorityrr+0x84>
40002730:	00008025 	move	s0,zero
40002734:	00608825 	move	s1,v1
40002738:	a0600019 	sb	zero,25(v1)
4000273c:	8e230028 	lw	v1,40(s1)
40002740:	8fbf002c 	lw	ra,44(sp)
40002744:	96220000 	lhu	v0,0(s1)
40002748:	24630001 	addiu	v1,v1,1
4000274c:	ae230028 	sw	v1,40(s1)
40002750:	8fb50028 	lw	s5,40(sp)
40002754:	8fb40024 	lw	s4,36(sp)
40002758:	8fb30020 	lw	s3,32(sp)
4000275c:	8fb2001c 	lw	s2,28(sp)
40002760:	8fb10018 	lw	s1,24(sp)
40002764:	8fb00014 	lw	s0,20(sp)
40002768:	03e00008 	jr	ra
4000276c:	27bd0030 	addiu	sp,sp,48
40002770:	0c000713 	jal	40001c4c <panic>
40002774:	24040005 	li	a0,5
40002778:	0c0008c0 	jal	40002300 <run_queue_next>
4000277c:	00000000 	nop
40002780:	00008825 	move	s1,zero
40002784:	080009b1 	j	400026c4 <sched_priorityrr+0xb0>
40002788:	3c134008 	lui	s3,0x4008

4000278c <sched_rma>:
4000278c:	27bdffc8 	addiu	sp,sp,-56
40002790:	afb10018 	sw	s1,24(sp)
40002794:	3c114008 	lui	s1,0x4008
40002798:	8e24f67c 	lw	a0,-2436(s1)
4000279c:	afb30020 	sw	s3,32(sp)
400027a0:	afbf0034 	sw	ra,52(sp)
400027a4:	afb70030 	sw	s7,48(sp)
400027a8:	afb6002c 	sw	s6,44(sp)
400027ac:	afb50028 	sw	s5,40(sp)
400027b0:	afb40024 	sw	s4,36(sp)
400027b4:	afb2001c 	sw	s2,28(sp)
400027b8:	0c0007ba 	jal	40001ee8 <hf_queue_count>
400027bc:	afb00014 	sw	s0,20(sp)
400027c0:	00409825 	move	s3,v0
400027c4:	1260005b 	beqz	s3,40002934 <sched_rma+0x1a8>
400027c8:	00001025 	move	v0,zero
400027cc:	2676ffff 	addiu	s6,s3,-1
400027d0:	00009025 	move	s2,zero
400027d4:	0256102a 	slt	v0,s2,s6
400027d8:	10400023 	beqz	v0,40002868 <sched_rma+0xdc>
400027dc:	0220a825 	move	s5,s1
400027e0:	26540001 	addiu	s4,s2,1
400027e4:	0293102a 	slt	v0,s4,s3
400027e8:	14400006 	bnez	v0,40002804 <sched_rma+0x78>
400027ec:	02808025 	move	s0,s4
400027f0:	08000a17 	j	4000285c <sched_rma+0xd0>
400027f4:	02809025 	move	s2,s4
400027f8:	26100001 	addiu	s0,s0,1
400027fc:	12130016 	beq	s0,s3,40002858 <sched_rma+0xcc>
40002800:	00000000 	nop
40002804:	8e24f67c 	lw	a0,-2436(s1)
40002808:	0c0007fd 	jal	40001ff4 <hf_queue_get>
4000280c:	02402825 	move	a1,s2
40002810:	8e24f67c 	lw	a0,-2436(s1)
40002814:	02002825 	move	a1,s0
40002818:	0c0007fd 	jal	40001ff4 <hf_queue_get>
4000281c:	0040b825 	move	s7,v0
40002820:	94440030 	lhu	a0,48(v0)
40002824:	96e30030 	lhu	v1,48(s7)
40002828:	0083182b 	sltu	v1,a0,v1
4000282c:	1060fff2 	beqz	v1,400027f8 <sched_rma+0x6c>
40002830:	8ea4f67c 	lw	a0,-2436(s5)
40002834:	02003025 	move	a2,s0
40002838:	0c000819 	jal	40002064 <hf_queue_swap>
4000283c:	02402825 	move	a1,s2
40002840:	1040ffed 	beqz	v0,400027f8 <sched_rma+0x6c>
40002844:	2404000c 	li	a0,12
40002848:	0c000713 	jal	40001c4c <panic>
4000284c:	26100001 	addiu	s0,s0,1
40002850:	1613ffed 	bne	s0,s3,40002808 <sched_rma+0x7c>
40002854:	8e24f67c 	lw	a0,-2436(s1)
40002858:	02809025 	move	s2,s4
4000285c:	0256102a 	slt	v0,s2,s6
40002860:	1440ffe0 	bnez	v0,400027e4 <sched_rma+0x58>
40002864:	26540001 	addiu	s4,s2,1
40002868:	1a60002e 	blez	s3,40002924 <sched_rma+0x198>
4000286c:	3c124008 	lui	s2,0x4008
40002870:	0000a025 	move	s4,zero
40002874:	00008025 	move	s0,zero
40002878:	0240b025 	move	s6,s2
4000287c:	24150003 	li	s5,3
40002880:	0c0007e0 	jal	40001f80 <hf_queue_remhead>
40002884:	8e24f67c 	lw	a0,-2436(s1)
40002888:	00402825 	move	a1,v0
4000288c:	1040004b 	beqz	v0,400029bc <sched_rma+0x230>
40002890:	ae42f664 	sw	v0,-2460(s2)
40002894:	0c0007bc 	jal	40001ef0 <hf_queue_addtail>
40002898:	8e24f67c 	lw	a0,-2436(s1)
4000289c:	10400004 	beqz	v0,400028b0 <sched_rma+0x124>
400028a0:	8e43f664 	lw	v1,-2460(s2)
400028a4:	0c000713 	jal	40001c4c <panic>
400028a8:	2404000b 	li	a0,11
400028ac:	8e43f664 	lw	v1,-2460(s2)
400028b0:	90620016 	lbu	v0,22(v1)
400028b4:	10550008 	beq	v0,s5,400028d8 <sched_rma+0x14c>
400028b8:	00000000 	nop
400028bc:	94620036 	lhu	v0,54(v1)
400028c0:	10400005 	beqz	v0,400028d8 <sched_rma+0x14c>
400028c4:	00000000 	nop
400028c8:	16800003 	bnez	s4,400028d8 <sched_rma+0x14c>
400028cc:	2442ffff 	addiu	v0,v0,-1
400028d0:	94740000 	lhu	s4,0(v1)
400028d4:	a4620036 	sh	v0,54(v1)
400028d8:	94640038 	lhu	a0,56(v1)
400028dc:	2484ffff 	addiu	a0,a0,-1
400028e0:	3084ffff 	andi	a0,a0,0xffff
400028e4:	1480000a 	bnez	a0,40002910 <sched_rma+0x184>
400028e8:	a4640038 	sh	a0,56(v1)
400028ec:	94640030 	lhu	a0,48(v1)
400028f0:	94620036 	lhu	v0,54(v1)
400028f4:	10400004 	beqz	v0,40002908 <sched_rma+0x17c>
400028f8:	a4640038 	sh	a0,56(v1)
400028fc:	8c62002c 	lw	v0,44(v1)
40002900:	24420001 	addiu	v0,v0,1
40002904:	ac62002c 	sw	v0,44(v1)
40002908:	94620032 	lhu	v0,50(v1)
4000290c:	a4620036 	sh	v0,54(v1)
40002910:	26100001 	addiu	s0,s0,1
40002914:	1613ffda 	bne	s0,s3,40002880 <sched_rma+0xf4>
40002918:	00000000 	nop
4000291c:	16800010 	bnez	s4,40002960 <sched_rma+0x1d4>
40002920:	001418c0 	sll	v1,s4,0x3
40002924:	3c024000 	lui	v0,0x4000
40002928:	244242dc 	addiu	v0,v0,17116
4000292c:	ae42f664 	sw	v0,-2460(s2)
40002930:	00001025 	move	v0,zero
40002934:	8fbf0034 	lw	ra,52(sp)
40002938:	8fb70030 	lw	s7,48(sp)
4000293c:	8fb6002c 	lw	s6,44(sp)
40002940:	8fb50028 	lw	s5,40(sp)
40002944:	8fb40024 	lw	s4,36(sp)
40002948:	8fb30020 	lw	s3,32(sp)
4000294c:	8fb2001c 	lw	s2,28(sp)
40002950:	8fb10018 	lw	s1,24(sp)
40002954:	8fb00014 	lw	s0,20(sp)
40002958:	03e00008 	jr	ra
4000295c:	27bd0038 	addiu	sp,sp,56
40002960:	00142140 	sll	a0,s4,0x5
40002964:	00641821 	addu	v1,v1,a0
40002968:	00741823 	subu	v1,v1,s4
4000296c:	00032080 	sll	a0,v1,0x2
40002970:	3c034000 	lui	v1,0x4000
40002974:	246342dc 	addiu	v1,v1,17116
40002978:	00641821 	addu	v1,v1,a0
4000297c:	8c640020 	lw	a0,32(v1)
40002980:	02801025 	move	v0,s4
40002984:	ae43f664 	sw	v1,-2460(s2)
40002988:	24840001 	addiu	a0,a0,1
4000298c:	ac640020 	sw	a0,32(v1)
40002990:	8fbf0034 	lw	ra,52(sp)
40002994:	8fb70030 	lw	s7,48(sp)
40002998:	8fb6002c 	lw	s6,44(sp)
4000299c:	8fb50028 	lw	s5,40(sp)
400029a0:	8fb40024 	lw	s4,36(sp)
400029a4:	8fb30020 	lw	s3,32(sp)
400029a8:	8fb2001c 	lw	s2,28(sp)
400029ac:	8fb10018 	lw	s1,24(sp)
400029b0:	8fb00014 	lw	s0,20(sp)
400029b4:	03e00008 	jr	ra
400029b8:	27bd0038 	addiu	sp,sp,56
400029bc:	0c000713 	jal	40001c4c <panic>
400029c0:	24040006 	li	a0,6
400029c4:	08000a25 	j	40002894 <sched_rma+0x108>
400029c8:	8ec5f664 	lw	a1,-2460(s6)

400029cc <sched_ap>:
400029cc:	27bdffd0 	addiu	sp,sp,-48
400029d0:	afb30020 	sw	s3,32(sp)
400029d4:	3c134008 	lui	s3,0x4008
400029d8:	8e64f670 	lw	a0,-2448(s3)
400029dc:	afb2001c 	sw	s2,28(sp)
400029e0:	afbf002c 	sw	ra,44(sp)
400029e4:	afb50028 	sw	s5,40(sp)
400029e8:	afb40024 	sw	s4,36(sp)
400029ec:	afb10018 	sw	s1,24(sp)
400029f0:	0c0007ba 	jal	40001ee8 <hf_queue_count>
400029f4:	afb00014 	sw	s0,20(sp)
400029f8:	00409025 	move	s2,v0
400029fc:	12400020 	beqz	s2,40002a80 <sched_ap+0xb4>
40002a00:	00001025 	move	v0,zero
40002a04:	1a40003c 	blez	s2,40002af8 <sched_ap+0x12c>
40002a08:	0000a025 	move	s4,zero
40002a0c:	00008025 	move	s0,zero
40002a10:	3c114008 	lui	s1,0x4008
40002a14:	24150003 	li	s5,3
40002a18:	8e64f670 	lw	a0,-2448(s3)
40002a1c:	00002825 	move	a1,zero
40002a20:	0c0007fd 	jal	40001ff4 <hf_queue_get>
40002a24:	26100001 	addiu	s0,s0,1
40002a28:	94440000 	lhu	a0,0(v0)
40002a2c:	0c000c76 	jal	400031d8 <hf_kill>
40002a30:	ae22f664 	sw	v0,-2460(s1)
40002a34:	8e23f664 	lw	v1,-2460(s1)
40002a38:	90620016 	lbu	v0,22(v1)
40002a3c:	10550008 	beq	v0,s5,40002a60 <sched_ap+0x94>
40002a40:	00000000 	nop
40002a44:	94640036 	lhu	a0,54(v1)
40002a48:	10800005 	beqz	a0,40002a60 <sched_ap+0x94>
40002a4c:	00000000 	nop
40002a50:	16800003 	bnez	s4,40002a60 <sched_ap+0x94>
40002a54:	2484ffff 	addiu	a0,a0,-1
40002a58:	94740000 	lhu	s4,0(v1)
40002a5c:	a4640036 	sh	a0,54(v1)
40002a60:	1612ffee 	bne	s0,s2,40002a1c <sched_ap+0x50>
40002a64:	8e64f670 	lw	a0,-2448(s3)
40002a68:	1680000e 	bnez	s4,40002aa4 <sched_ap+0xd8>
40002a6c:	00142140 	sll	a0,s4,0x5
40002a70:	3c024000 	lui	v0,0x4000
40002a74:	244242dc 	addiu	v0,v0,17116
40002a78:	ae22f664 	sw	v0,-2460(s1)
40002a7c:	00001025 	move	v0,zero
40002a80:	8fbf002c 	lw	ra,44(sp)
40002a84:	8fb50028 	lw	s5,40(sp)
40002a88:	8fb40024 	lw	s4,36(sp)
40002a8c:	8fb30020 	lw	s3,32(sp)
40002a90:	8fb2001c 	lw	s2,28(sp)
40002a94:	8fb10018 	lw	s1,24(sp)
40002a98:	8fb00014 	lw	s0,20(sp)
40002a9c:	03e00008 	jr	ra
40002aa0:	27bd0030 	addiu	sp,sp,48
40002aa4:	001418c0 	sll	v1,s4,0x3
40002aa8:	00641821 	addu	v1,v1,a0
40002aac:	00741823 	subu	v1,v1,s4
40002ab0:	00032080 	sll	a0,v1,0x2
40002ab4:	3c034000 	lui	v1,0x4000
40002ab8:	246342dc 	addiu	v1,v1,17116
40002abc:	00641821 	addu	v1,v1,a0
40002ac0:	8c640024 	lw	a0,36(v1)
40002ac4:	02801025 	move	v0,s4
40002ac8:	ae23f664 	sw	v1,-2460(s1)
40002acc:	24840001 	addiu	a0,a0,1
40002ad0:	ac640024 	sw	a0,36(v1)
40002ad4:	8fbf002c 	lw	ra,44(sp)
40002ad8:	8fb50028 	lw	s5,40(sp)
40002adc:	8fb40024 	lw	s4,36(sp)
40002ae0:	8fb30020 	lw	s3,32(sp)
40002ae4:	8fb2001c 	lw	s2,28(sp)
40002ae8:	8fb10018 	lw	s1,24(sp)
40002aec:	8fb00014 	lw	s0,20(sp)
40002af0:	03e00008 	jr	ra
40002af4:	27bd0030 	addiu	sp,sp,48
40002af8:	08000a9c 	j	40002a70 <sched_ap+0xa4>
40002afc:	3c114008 	lui	s1,0x4008

40002b00 <hf_selfid>:
40002b00:	27bdffe8 	addiu	sp,sp,-24
40002b04:	afbf0014 	sw	ra,20(sp)
40002b08:	0c000181 	jal	40000604 <_read_us>
40002b0c:	00000000 	nop
40002b10:	3c044000 	lui	a0,0x4000
40002b14:	00602825 	move	a1,v1
40002b18:	0c000346 	jal	40000d18 <dprintf>
40002b1c:	24843d50 	addiu	a0,a0,15696
40002b20:	3c024008 	lui	v0,0x4008
40002b24:	8fbf0014 	lw	ra,20(sp)
40002b28:	8c42f664 	lw	v0,-2460(v0)
40002b2c:	94420000 	lhu	v0,0(v0)
40002b30:	03e00008 	jr	ra
40002b34:	27bd0018 	addiu	sp,sp,24

40002b38 <hf_selfname>:
40002b38:	27bdffe8 	addiu	sp,sp,-24
40002b3c:	afbf0014 	sw	ra,20(sp)
40002b40:	0c000181 	jal	40000604 <_read_us>
40002b44:	00000000 	nop
40002b48:	3c044000 	lui	a0,0x4000
40002b4c:	00602825 	move	a1,v1
40002b50:	0c000346 	jal	40000d18 <dprintf>
40002b54:	24843d60 	addiu	a0,a0,15712
40002b58:	3c024008 	lui	v0,0x4008
40002b5c:	8fbf0014 	lw	ra,20(sp)
40002b60:	8c42f664 	lw	v0,-2460(v0)
40002b64:	27bd0018 	addiu	sp,sp,24
40002b68:	03e00008 	jr	ra
40002b6c:	24420002 	addiu	v0,v0,2

40002b70 <hf_jobs>:
40002b70:	27bdffe8 	addiu	sp,sp,-24
40002b74:	afbf0014 	sw	ra,20(sp)
40002b78:	afb00010 	sw	s0,16(sp)
40002b7c:	0c000181 	jal	40000604 <_read_us>
40002b80:	3090ffff 	andi	s0,a0,0xffff
40002b84:	3c044000 	lui	a0,0x4000
40002b88:	00602825 	move	a1,v1
40002b8c:	0c000346 	jal	40000d18 <dprintf>
40002b90:	24843d84 	addiu	a0,a0,15748
40002b94:	2e02001e 	sltiu	v0,s0,30
40002b98:	1040001d 	beqz	v0,40002c10 <hf_jobs+0xa0>
40002b9c:	001028c0 	sll	a1,s0,0x3
40002ba0:	00101140 	sll	v0,s0,0x5
40002ba4:	00a21021 	addu	v0,a1,v0
40002ba8:	00501023 	subu	v0,v0,s0
40002bac:	00021880 	sll	v1,v0,0x2
40002bb0:	3c024000 	lui	v0,0x4000
40002bb4:	244242dc 	addiu	v0,v0,17116
40002bb8:	00621021 	addu	v0,v1,v0
40002bbc:	8c43008c 	lw	v1,140(v0)
40002bc0:	10600013 	beqz	v1,40002c10 <hf_jobs+0xa0>
40002bc4:	00000000 	nop
40002bc8:	94430030 	lhu	v1,48(v0)
40002bcc:	1460000c 	bnez	v1,40002c00 <hf_jobs+0x90>
40002bd0:	8fbf0014 	lw	ra,20(sp)
40002bd4:	94430032 	lhu	v1,50(v0)
40002bd8:	14600006 	bnez	v1,40002bf4 <hf_jobs+0x84>
40002bdc:	8fb00010 	lw	s0,16(sp)
40002be0:	8c420028 	lw	v0,40(v0)
40002be4:	8fbf0014 	lw	ra,20(sp)
40002be8:	8fb00010 	lw	s0,16(sp)
40002bec:	03e00008 	jr	ra
40002bf0:	27bd0018 	addiu	sp,sp,24
40002bf4:	8c420024 	lw	v0,36(v0)
40002bf8:	03e00008 	jr	ra
40002bfc:	27bd0018 	addiu	sp,sp,24
40002c00:	8c420020 	lw	v0,32(v0)
40002c04:	8fb00010 	lw	s0,16(sp)
40002c08:	03e00008 	jr	ra
40002c0c:	27bd0018 	addiu	sp,sp,24
40002c10:	08000af9 	j	40002be4 <hf_jobs+0x74>
40002c14:	2402ff9c 	li	v0,-100

40002c18 <hf_dlm>:
40002c18:	27bdffe8 	addiu	sp,sp,-24
40002c1c:	afbf0014 	sw	ra,20(sp)
40002c20:	afb00010 	sw	s0,16(sp)
40002c24:	0c000181 	jal	40000604 <_read_us>
40002c28:	3090ffff 	andi	s0,a0,0xffff
40002c2c:	3c044000 	lui	a0,0x4000
40002c30:	00602825 	move	a1,v1
40002c34:	0c000346 	jal	40000d18 <dprintf>
40002c38:	24843d94 	addiu	a0,a0,15764
40002c3c:	2e02001e 	sltiu	v0,s0,30
40002c40:	10400010 	beqz	v0,40002c84 <hf_dlm+0x6c>
40002c44:	001028c0 	sll	a1,s0,0x3
40002c48:	00101140 	sll	v0,s0,0x5
40002c4c:	00a21021 	addu	v0,a1,v0
40002c50:	00501023 	subu	v0,v0,s0
40002c54:	00021880 	sll	v1,v0,0x2
40002c58:	3c024000 	lui	v0,0x4000
40002c5c:	244242dc 	addiu	v0,v0,17116
40002c60:	00621021 	addu	v0,v1,v0
40002c64:	8c43008c 	lw	v1,140(v0)
40002c68:	10600006 	beqz	v1,40002c84 <hf_dlm+0x6c>
40002c6c:	00000000 	nop
40002c70:	8c42002c 	lw	v0,44(v0)
40002c74:	8fbf0014 	lw	ra,20(sp)
40002c78:	8fb00010 	lw	s0,16(sp)
40002c7c:	03e00008 	jr	ra
40002c80:	27bd0018 	addiu	sp,sp,24
40002c84:	08000b1d 	j	40002c74 <hf_dlm+0x5c>
40002c88:	2402ff9c 	li	v0,-100

40002c8c <hf_spawn>:
40002c8c:	27bdffa0 	addiu	sp,sp,-96
40002c90:	afb30044 	sw	s3,68(sp)
40002c94:	afb20040 	sw	s2,64(sp)
40002c98:	afb1003c 	sw	s1,60(sp)
40002c9c:	afb00038 	sw	s0,56(sp)
40002ca0:	30b2ffff 	andi	s2,a1,0xffff
40002ca4:	afbf005c 	sw	ra,92(sp)
40002ca8:	afbe0058 	sw	s8,88(sp)
40002cac:	afb70054 	sw	s7,84(sp)
40002cb0:	afb60050 	sw	s6,80(sp)
40002cb4:	afb5004c 	sw	s5,76(sp)
40002cb8:	afb40048 	sw	s4,72(sp)
40002cbc:	00809825 	move	s3,a0
40002cc0:	30d0ffff 	andi	s0,a2,0xffff
40002cc4:	30f1ffff 	andi	s1,a3,0xffff
40002cc8:	afa00028 	sw	zero,40(sp)
40002ccc:	0c000181 	jal	40000604 <_read_us>
40002cd0:	00000000 	nop
40002cd4:	3c044000 	lui	a0,0x4000
40002cd8:	00602825 	move	a1,v1
40002cdc:	0c000346 	jal	40000d18 <dprintf>
40002ce0:	24843dd4 	addiu	a0,a0,15828
40002ce4:	12400003 	beqz	s2,40002cf4 <hf_spawn+0x68>
40002ce8:	0250102b 	sltu	v0,s2,s0
40002cec:	14400089 	bnez	v0,40002f14 <hf_spawn+0x288>
40002cf0:	2402ff9b 	li	v0,-101
40002cf4:	12200003 	beqz	s1,40002d04 <hf_spawn+0x78>
40002cf8:	0230102b 	sltu	v0,s1,s0
40002cfc:	14400085 	bnez	v0,40002f14 <hf_spawn+0x288>
40002d00:	2402ff9b 	li	v0,-101
40002d04:	0c000082 	jal	40000208 <_interrupt_set>
40002d08:	00002025 	move	a0,zero
40002d0c:	afa2002c 	sw	v0,44(sp)
40002d10:	3c144000 	lui	s4,0x4000
40002d14:	8fa40028 	lw	a0,40(sp)
40002d18:	08000b50 	j	40002d40 <hf_spawn+0xb4>
40002d1c:	269442dc 	addiu	s4,s4,17116
40002d20:	8fa20028 	lw	v0,40(sp)
40002d24:	2c42001e 	sltiu	v0,v0,30
40002d28:	1040000e 	beqz	v0,40002d64 <hf_spawn+0xd8>
40002d2c:	00000000 	nop
40002d30:	8fa20028 	lw	v0,40(sp)
40002d34:	24420001 	addiu	v0,v0,1
40002d38:	afa20028 	sw	v0,40(sp)
40002d3c:	8fa40028 	lw	a0,40(sp)
40002d40:	000418c0 	sll	v1,a0,0x3
40002d44:	00041140 	sll	v0,a0,0x5
40002d48:	00621021 	addu	v0,v1,v0
40002d4c:	00441023 	subu	v0,v0,a0
40002d50:	00021080 	sll	v0,v0,0x2
40002d54:	02821021 	addu	v0,s4,v0
40002d58:	8c42008c 	lw	v0,140(v0)
40002d5c:	1440fff0 	bnez	v0,40002d20 <hf_spawn+0x94>
40002d60:	00000000 	nop
40002d64:	8fa30028 	lw	v1,40(sp)
40002d68:	2402001e 	li	v0,30
40002d6c:	1062009d 	beq	v1,v0,40002fe4 <hf_spawn+0x358>
40002d70:	3c044000 	lui	a0,0x4000
40002d74:	8fa50028 	lw	a1,40(sp)
40002d78:	3c1e4008 	lui	s8,0x4008
40002d7c:	8fa70028 	lw	a3,40(sp)
40002d80:	000518c0 	sll	v1,a1,0x3
40002d84:	00051140 	sll	v0,a1,0x5
40002d88:	00621021 	addu	v0,v1,v0
40002d8c:	97c4f66c 	lhu	a0,-2452(s8)
40002d90:	00451023 	subu	v0,v0,a1
40002d94:	00021080 	sll	v0,v0,0x2
40002d98:	8fa50070 	lw	a1,112(sp)
40002d9c:	02821021 	addu	v0,s4,v0
40002da0:	3c164008 	lui	s6,0x4008
40002da4:	24830001 	addiu	v1,a0,1
40002da8:	24060014 	li	a2,20
40002dac:	a4470000 	sh	a3,0(v0)
40002db0:	24440002 	addiu	a0,v0,2
40002db4:	a7c3f66c 	sh	v1,-2452(s8)
40002db8:	0c00050a 	jal	40001428 <strncpy>
40002dbc:	aec2f664 	sw	v0,-2460(s6)
40002dc0:	8fb70074 	lw	s7,116(sp)
40002dc4:	8ed5f664 	lw	s5,-2460(s6)
40002dc8:	24020064 	li	v0,100
40002dcc:	26f70003 	addiu	s7,s7,3
40002dd0:	0017b882 	srl	s7,s7,0x2
40002dd4:	0017b880 	sll	s7,s7,0x2
40002dd8:	02e02025 	move	a0,s7
40002ddc:	a6b10034 	sh	s1,52(s5)
40002de0:	a6b10038 	sh	s1,56(s5)
40002de4:	a2a00016 	sb	zero,22(s5)
40002de8:	a2a20017 	sb	v0,23(s5)
40002dec:	a2a20018 	sb	v0,24(s5)
40002df0:	aea0001c 	sw	zero,28(s5)
40002df4:	a6b20030 	sh	s2,48(s5)
40002df8:	a6b00032 	sh	s0,50(s5)
40002dfc:	a6b00036 	sh	s0,54(s5)
40002e00:	aea00020 	sw	zero,32(s5)
40002e04:	aea00024 	sw	zero,36(s5)
40002e08:	aea00028 	sw	zero,40(s5)
40002e0c:	aea0002c 	sw	zero,44(s5)
40002e10:	aeb3008c 	sw	s3,140(s5)
40002e14:	0c000695 	jal	40001a54 <hf_malloc>
40002e18:	aeb70094 	sw	s7,148(s5)
40002e1c:	8ec3f664 	lw	v1,-2460(s6)
40002e20:	aea20090 	sw	v0,144(s5)
40002e24:	8c650090 	lw	a1,144(v1)
40002e28:	94640000 	lhu	a0,0(v1)
40002e2c:	24a5fffc 	addiu	a1,a1,-4
40002e30:	0c000160 	jal	40000580 <_set_task_sp>
40002e34:	00b72821 	addu	a1,a1,s7
40002e38:	8ec2f664 	lw	v0,-2460(s6)
40002e3c:	94440000 	lhu	a0,0(v0)
40002e40:	0c000176 	jal	400005d8 <_set_task_tp>
40002e44:	8c45008c 	lw	a1,140(v0)
40002e48:	8ed1f664 	lw	s1,-2460(s6)
40002e4c:	8e230090 	lw	v1,144(s1)
40002e50:	10600056 	beqz	v1,40002fac <hf_spawn+0x320>
40002e54:	97c2f66c 	lhu	v0,-2452(s8)
40002e58:	96330000 	lhu	s3,0(s1)
40002e5c:	96260032 	lhu	a2,50(s1)
40002e60:	96250034 	lhu	a1,52(s1)
40002e64:	3c02b00b 	lui	v0,0xb00b
40002e68:	3442b00b 	ori	v0,v0,0xb00b
40002e6c:	96350030 	lhu	s5,48(s1)
40002e70:	8e3e008c 	lw	s8,140(s1)
40002e74:	02602025 	move	a0,s3
40002e78:	ac620000 	sw	v0,0(v1)
40002e7c:	afa50034 	sw	a1,52(sp)
40002e80:	0c00016b 	jal	400005ac <_get_task_sp>
40002e84:	afa60030 	sw	a2,48(sp)
40002e88:	8fa60030 	lw	a2,48(sp)
40002e8c:	8fa50034 	lw	a1,52(sp)
40002e90:	3c044000 	lui	a0,0x4000
40002e94:	afa60010 	sw	a2,16(sp)
40002e98:	afa50014 	sw	a1,20(sp)
40002e9c:	afbe0018 	sw	s8,24(sp)
40002ea0:	afa2001c 	sw	v0,28(sp)
40002ea4:	afb70020 	sw	s7,32(sp)
40002ea8:	24843e0c 	addiu	a0,a0,15884
40002eac:	26250002 	addiu	a1,s1,2
40002eb0:	02603025 	move	a2,s3
40002eb4:	0c0002d0 	jal	40000b40 <kprintf>
40002eb8:	02a03825 	move	a3,s5
40002ebc:	1640002e 	bnez	s2,40002f78 <hf_spawn+0x2ec>
40002ec0:	3c044000 	lui	a0,0x4000
40002ec4:	1600001f 	bnez	s0,40002f44 <hf_spawn+0x2b8>
40002ec8:	3c044000 	lui	a0,0x4000
40002ecc:	3c024008 	lui	v0,0x4008
40002ed0:	8c44f678 	lw	a0,-2440(v0)
40002ed4:	0c0007bc 	jal	40001ef0 <hf_queue_addtail>
40002ed8:	8ec5f664 	lw	a1,-2460(s6)
40002edc:	1440003d 	bnez	v0,40002fd4 <hf_spawn+0x348>
40002ee0:	00000000 	nop
40002ee4:	3c024008 	lui	v0,0x4008
40002ee8:	9445f660 	lhu	a1,-2464(v0)
40002eec:	8fa4002c 	lw	a0,44(sp)
40002ef0:	000518c0 	sll	v1,a1,0x3
40002ef4:	00051140 	sll	v0,a1,0x5
40002ef8:	00621021 	addu	v0,v1,v0
40002efc:	00451023 	subu	v0,v0,a1
40002f00:	00021080 	sll	v0,v0,0x2
40002f04:	0282a021 	addu	s4,s4,v0
40002f08:	0c000082 	jal	40000208 <_interrupt_set>
40002f0c:	aed4f664 	sw	s4,-2460(s6)
40002f10:	8fa20028 	lw	v0,40(sp)
40002f14:	8fbf005c 	lw	ra,92(sp)
40002f18:	8fbe0058 	lw	s8,88(sp)
40002f1c:	8fb70054 	lw	s7,84(sp)
40002f20:	8fb60050 	lw	s6,80(sp)
40002f24:	8fb5004c 	lw	s5,76(sp)
40002f28:	8fb40048 	lw	s4,72(sp)
40002f2c:	8fb30044 	lw	s3,68(sp)
40002f30:	8fb20040 	lw	s2,64(sp)
40002f34:	8fb1003c 	lw	s1,60(sp)
40002f38:	8fb00038 	lw	s0,56(sp)
40002f3c:	03e00008 	jr	ra
40002f40:	27bd0060 	addiu	sp,sp,96
40002f44:	24843e64 	addiu	a0,a0,15972
40002f48:	0c0002d0 	jal	40000b40 <kprintf>
40002f4c:	02002825 	move	a1,s0
40002f50:	3c024008 	lui	v0,0x4008
40002f54:	8c44f670 	lw	a0,-2448(v0)
40002f58:	0c0007bc 	jal	40001ef0 <hf_queue_addtail>
40002f5c:	8ec5f664 	lw	a1,-2460(s6)
40002f60:	1040ffe0 	beqz	v0,40002ee4 <hf_spawn+0x258>
40002f64:	00000000 	nop
40002f68:	0c000713 	jal	40001c4c <panic>
40002f6c:	24040010 	li	a0,16
40002f70:	08000bba 	j	40002ee8 <hf_spawn+0x25c>
40002f74:	3c024008 	lui	v0,0x4008
40002f78:	24843e54 	addiu	a0,a0,15956
40002f7c:	0c0002d0 	jal	40000b40 <kprintf>
40002f80:	02402825 	move	a1,s2
40002f84:	3c024008 	lui	v0,0x4008
40002f88:	8c44f67c 	lw	a0,-2436(v0)
40002f8c:	0c0007bc 	jal	40001ef0 <hf_queue_addtail>
40002f90:	8ec5f664 	lw	a1,-2460(s6)
40002f94:	1040ffd3 	beqz	v0,40002ee4 <hf_spawn+0x258>
40002f98:	00000000 	nop
40002f9c:	0c000713 	jal	40001c4c <panic>
40002fa0:	2404000b 	li	a0,11
40002fa4:	08000bba 	j	40002ee8 <hf_spawn+0x25c>
40002fa8:	3c024008 	lui	v0,0x4008
40002fac:	3c044000 	lui	a0,0x4000
40002fb0:	ae20008c 	sw	zero,140(s1)
40002fb4:	2442ffff 	addiu	v0,v0,-1
40002fb8:	24843e74 	addiu	a0,a0,15988
40002fbc:	0c0002d0 	jal	40000b40 <kprintf>
40002fc0:	a7c2f66c 	sh	v0,-2452(s8)
40002fc4:	2402ff98 	li	v0,-104
40002fc8:	afa20028 	sw	v0,40(sp)
40002fcc:	08000bba 	j	40002ee8 <hf_spawn+0x25c>
40002fd0:	3c024008 	lui	v0,0x4008
40002fd4:	0c000713 	jal	40001c4c <panic>
40002fd8:	24040009 	li	a0,9
40002fdc:	08000bba 	j	40002ee8 <hf_spawn+0x25c>
40002fe0:	3c024008 	lui	v0,0x4008
40002fe4:	24843de4 	addiu	a0,a0,15844
40002fe8:	0c0002d0 	jal	40000b40 <kprintf>
40002fec:	2405001e 	li	a1,30
40002ff0:	8fa4002c 	lw	a0,44(sp)
40002ff4:	0c000082 	jal	40000208 <_interrupt_set>
40002ff8:	00000000 	nop
40002ffc:	08000bc5 	j	40002f14 <hf_spawn+0x288>
40003000:	2402ff99 	li	v0,-103

40003004 <hf_yield>:
40003004:	27bdffc0 	addiu	sp,sp,-64
40003008:	00002025 	move	a0,zero
4000300c:	afbf003c 	sw	ra,60(sp)
40003010:	afb10024 	sw	s1,36(sp)
40003014:	afb00020 	sw	s0,32(sp)
40003018:	afb60038 	sw	s6,56(sp)
4000301c:	afb50034 	sw	s5,52(sp)
40003020:	afb40030 	sw	s4,48(sp)
40003024:	afb3002c 	sw	s3,44(sp)
40003028:	0c000082 	jal	40000208 <_interrupt_set>
4000302c:	afb20028 	sw	s2,40(sp)
40003030:	afa20018 	sw	v0,24(sp)
40003034:	0c000181 	jal	40000604 <_read_us>
40003038:	3c104008 	lui	s0,0x4008
4000303c:	3c044000 	lui	a0,0x4000
40003040:	00602825 	move	a1,v1
40003044:	0c000346 	jal	40000d18 <dprintf>
40003048:	24843e9c 	addiu	a0,a0,16028
4000304c:	9602f660 	lhu	v0,-2464(s0)
40003050:	3c054000 	lui	a1,0x4000
40003054:	24a542dc 	addiu	a1,a1,17116
40003058:	00022140 	sll	a0,v0,0x5
4000305c:	000218c0 	sll	v1,v0,0x3
40003060:	00641821 	addu	v1,v1,a0
40003064:	00621023 	subu	v0,v1,v0
40003068:	00021080 	sll	v0,v0,0x2
4000306c:	00a22021 	addu	a0,a1,v0
40003070:	00801025 	move	v0,a0
40003074:	3c114008 	lui	s1,0x4008
40003078:	2484003c 	addiu	a0,a0,60
4000307c:	0c000088 	jal	40000220 <_context_save>
40003080:	ae22f664 	sw	v0,-2460(s1)
40003084:	14400047 	bnez	v0,400031a4 <hf_yield+0x1a0>
40003088:	8e22f664 	lw	v0,-2460(s1)
4000308c:	24030002 	li	v1,2
40003090:	90440016 	lbu	a0,22(v0)
40003094:	10830041 	beq	a0,v1,4000319c <hf_yield+0x198>
40003098:	24030001 	li	v1,1
4000309c:	8c420090 	lw	v0,144(v0)
400030a0:	8c430000 	lw	v1,0(v0)
400030a4:	3c02b00b 	lui	v0,0xb00b
400030a8:	3442b00b 	ori	v0,v0,0xb00b
400030ac:	10620004 	beq	v1,v0,400030c0 <hf_yield+0xbc>
400030b0:	3c024008 	lui	v0,0x4008
400030b4:	0c000713 	jal	40001c4c <panic>
400030b8:	24040002 	li	a0,2
400030bc:	3c024008 	lui	v0,0x4008
400030c0:	9442f66c 	lhu	v0,-2452(v0)
400030c4:	1440000d 	bnez	v0,400030fc <hf_yield+0xf8>
400030c8:	3c124008 	lui	s2,0x4008
400030cc:	0c000713 	jal	40001c4c <panic>
400030d0:	24040003 	li	a0,3
400030d4:	8fbf003c 	lw	ra,60(sp)
400030d8:	8fb60038 	lw	s6,56(sp)
400030dc:	8fb50034 	lw	s5,52(sp)
400030e0:	8fb40030 	lw	s4,48(sp)
400030e4:	8fb3002c 	lw	s3,44(sp)
400030e8:	8fb20028 	lw	s2,40(sp)
400030ec:	8fb10024 	lw	s1,36(sp)
400030f0:	8fb00020 	lw	s0,32(sp)
400030f4:	03e00008 	jr	ra
400030f8:	27bd0040 	addiu	sp,sp,64
400030fc:	2652f644 	addiu	s2,s2,-2492
40003100:	8e420008 	lw	v0,8(s2)
40003104:	0040f809 	jalr	v0
40003108:	00000000 	nop
4000310c:	8e23f664 	lw	v1,-2460(s1)
40003110:	8e44000c 	lw	a0,12(s2)
40003114:	00409825 	move	s3,v0
40003118:	94760030 	lhu	s6,48(v1)
4000311c:	94750032 	lhu	s5,50(v1)
40003120:	94740034 	lhu	s4,52(v1)
40003124:	24020002 	li	v0,2
40003128:	24840001 	addiu	a0,a0,1
4000312c:	a0620016 	sb	v0,22(v1)
40003130:	a613f660 	sh	s3,-2464(s0)
40003134:	0c000181 	jal	40000604 <_read_us>
40003138:	ae44000c 	sw	a0,12(s2)
4000313c:	3c044000 	lui	a0,0x4000
40003140:	02c03025 	move	a2,s6
40003144:	02a03825 	move	a3,s5
40003148:	afa30014 	sw	v1,20(sp)
4000314c:	3265ffff 	andi	a1,s3,0xffff
40003150:	afb40010 	sw	s4,16(sp)
40003154:	0c000346 	jal	40000d18 <dprintf>
40003158:	24843d20 	addiu	a0,a0,15648
4000315c:	8e24f664 	lw	a0,-2460(s1)
40003160:	24050001 	li	a1,1
40003164:	0c000097 	jal	4000025c <_context_restore>
40003168:	2484003c 	addiu	a0,a0,60
4000316c:	0c000713 	jal	40001c4c <panic>
40003170:	240400ff 	li	a0,255
40003174:	8fbf003c 	lw	ra,60(sp)
40003178:	8fb60038 	lw	s6,56(sp)
4000317c:	8fb50034 	lw	s5,52(sp)
40003180:	8fb40030 	lw	s4,48(sp)
40003184:	8fb3002c 	lw	s3,44(sp)
40003188:	8fb20028 	lw	s2,40(sp)
4000318c:	8fb10024 	lw	s1,36(sp)
40003190:	8fb00020 	lw	s0,32(sp)
40003194:	03e00008 	jr	ra
40003198:	27bd0040 	addiu	sp,sp,64
4000319c:	08000c27 	j	4000309c <hf_yield+0x98>
400031a0:	a0430016 	sb	v1,22(v0)
400031a4:	8fa40018 	lw	a0,24(sp)
400031a8:	0c000082 	jal	40000208 <_interrupt_set>
400031ac:	00000000 	nop
400031b0:	8fbf003c 	lw	ra,60(sp)
400031b4:	8fb60038 	lw	s6,56(sp)
400031b8:	8fb50034 	lw	s5,52(sp)
400031bc:	8fb40030 	lw	s4,48(sp)
400031c0:	8fb3002c 	lw	s3,44(sp)
400031c4:	8fb20028 	lw	s2,40(sp)
400031c8:	8fb10024 	lw	s1,36(sp)
400031cc:	8fb00020 	lw	s0,32(sp)
400031d0:	03e00008 	jr	ra
400031d4:	27bd0040 	addiu	sp,sp,64

400031d8 <hf_kill>:
400031d8:	27bdffc8 	addiu	sp,sp,-56
400031dc:	afbf0034 	sw	ra,52(sp)
400031e0:	afb20020 	sw	s2,32(sp)
400031e4:	afb60030 	sw	s6,48(sp)
400031e8:	3092ffff 	andi	s2,a0,0xffff
400031ec:	afb5002c 	sw	s5,44(sp)
400031f0:	afb40028 	sw	s4,40(sp)
400031f4:	afb30024 	sw	s3,36(sp)
400031f8:	afb1001c 	sw	s1,28(sp)
400031fc:	0c000181 	jal	40000604 <_read_us>
40003200:	afb00018 	sw	s0,24(sp)
40003204:	3c044000 	lui	a0,0x4000
40003208:	00602825 	move	a1,v1
4000320c:	0c000346 	jal	40000d18 <dprintf>
40003210:	24843f8c 	addiu	a0,a0,16268
40003214:	0c000082 	jal	40000208 <_interrupt_set>
40003218:	00002025 	move	a0,zero
4000321c:	afa20010 	sw	v0,16(sp)
40003220:	124000f5 	beqz	s2,400035f8 <hf_kill+0x420>
40003224:	00121940 	sll	v1,s2,0x5
40003228:	001210c0 	sll	v0,s2,0x3
4000322c:	00431021 	addu	v0,v0,v1
40003230:	00521023 	subu	v0,v0,s2
40003234:	3c144000 	lui	s4,0x4000
40003238:	00021080 	sll	v0,v0,0x2
4000323c:	269442dc 	addiu	s4,s4,17116
40003240:	02821021 	addu	v0,s4,v0
40003244:	8c43008c 	lw	v1,140(v0)
40003248:	3c114008 	lui	s1,0x4008
4000324c:	106000da 	beqz	v1,400035b8 <hf_kill+0x3e0>
40003250:	ae22f664 	sw	v0,-2460(s1)
40003254:	2e43001e 	sltiu	v1,s2,30
40003258:	106000d7 	beqz	v1,400035b8 <hf_kill+0x3e0>
4000325c:	2403ffff 	li	v1,-1
40003260:	8c440090 	lw	a0,144(v0)
40003264:	a4430000 	sh	v1,0(v0)
40003268:	0c00067a 	jal	400019e8 <hf_free>
4000326c:	ac40008c 	sw	zero,140(v0)
40003270:	8e22f664 	lw	v0,-2460(s1)
40003274:	00002825 	move	a1,zero
40003278:	3c154008 	lui	s5,0x4008
4000327c:	0c000160 	jal	40000580 <_set_task_sp>
40003280:	94440000 	lhu	a0,0(v0)
40003284:	8e22f664 	lw	v0,-2460(s1)
40003288:	00002825 	move	a1,zero
4000328c:	0c000176 	jal	400005d8 <_set_task_tp>
40003290:	94440000 	lhu	a0,0(v0)
40003294:	8e23f664 	lw	v1,-2460(s1)
40003298:	96a2f66c 	lhu	v0,-2452(s5)
4000329c:	94640030 	lhu	a0,48(v1)
400032a0:	2442ffff 	addiu	v0,v0,-1
400032a4:	a0600016 	sb	zero,22(v1)
400032a8:	14800072 	bnez	a0,40003474 <hf_kill+0x29c>
400032ac:	a6a2f66c 	sh	v0,-2452(s5)
400032b0:	94620032 	lhu	v0,50(v1)
400032b4:	10400044 	beqz	v0,400033c8 <hf_kill+0x1f0>
400032b8:	3c164008 	lui	s6,0x4008
400032bc:	3c164008 	lui	s6,0x4008
400032c0:	8ec4f670 	lw	a0,-2448(s6)
400032c4:	0c0007ba 	jal	40001ee8 <hf_queue_count>
400032c8:	00008025 	move	s0,zero
400032cc:	1c400005 	bgtz	v0,400032e4 <hf_kill+0x10c>
400032d0:	00409825 	move	s3,v0
400032d4:	08000d4b 	j	4000352c <hf_kill+0x354>
400032d8:	00000000 	nop
400032dc:	12130095 	beq	s0,s3,40003534 <hf_kill+0x35c>
400032e0:	00000000 	nop
400032e4:	8ec4f670 	lw	a0,-2448(s6)
400032e8:	0c0007fd 	jal	40001ff4 <hf_queue_get>
400032ec:	02002825 	move	a1,s0
400032f0:	8e23f664 	lw	v1,-2460(s1)
400032f4:	1462fff9 	bne	v1,v0,400032dc <hf_kill+0x104>
400032f8:	26100001 	addiu	s0,s0,1
400032fc:	2610ffff 	addiu	s0,s0,-1
40003300:	1a000009 	blez	s0,40003328 <hf_kill+0x150>
40003304:	8ec4f670 	lw	a0,-2448(s6)
40003308:	2613ffff 	addiu	s3,s0,-1
4000330c:	02002825 	move	a1,s0
40003310:	0c000819 	jal	40002064 <hf_queue_swap>
40003314:	02603025 	move	a2,s3
40003318:	1440004a 	bnez	v0,40003444 <hf_kill+0x26c>
4000331c:	02608025 	move	s0,s3
40003320:	1600fff9 	bnez	s0,40003308 <hf_kill+0x130>
40003324:	8ec4f670 	lw	a0,-2448(s6)
40003328:	0c0007e0 	jal	40001f80 <hf_queue_remhead>
4000332c:	8ec4f670 	lw	a0,-2448(s6)
40003330:	10400003 	beqz	v0,40003340 <hf_kill+0x168>
40003334:	8e23f664 	lw	v1,-2460(s1)
40003338:	10430004 	beq	v0,v1,4000334c <hf_kill+0x174>
4000333c:	3c024008 	lui	v0,0x4008
40003340:	0c000713 	jal	40001c4c <panic>
40003344:	24040008 	li	a0,8
40003348:	3c024008 	lui	v0,0x4008
4000334c:	9444f660 	lhu	a0,-2464(v0)
40003350:	96a6f66c 	lhu	a2,-2452(s5)
40003354:	02402825 	move	a1,s2
40003358:	000418c0 	sll	v1,a0,0x3
4000335c:	00041140 	sll	v0,a0,0x5
40003360:	00621021 	addu	v0,v1,v0
40003364:	00441023 	subu	v0,v0,a0
40003368:	00021080 	sll	v0,v0,0x2
4000336c:	3c044000 	lui	a0,0x4000
40003370:	24843fe0 	addiu	a0,a0,16352
40003374:	0282a021 	addu	s4,s4,v0
40003378:	0c0002d0 	jal	40000b40 <kprintf>
4000337c:	ae34f664 	sw	s4,-2460(s1)
40003380:	0c000ac0 	jal	40002b00 <hf_selfid>
40003384:	00000000 	nop
40003388:	8fa40010 	lw	a0,16(sp)
4000338c:	1052007b 	beq	v0,s2,4000357c <hf_kill+0x3a4>
40003390:	00000000 	nop
40003394:	0c000082 	jal	40000208 <_interrupt_set>
40003398:	00000000 	nop
4000339c:	00001025 	move	v0,zero
400033a0:	8fbf0034 	lw	ra,52(sp)
400033a4:	8fb60030 	lw	s6,48(sp)
400033a8:	8fb5002c 	lw	s5,44(sp)
400033ac:	8fb40028 	lw	s4,40(sp)
400033b0:	8fb30024 	lw	s3,36(sp)
400033b4:	8fb20020 	lw	s2,32(sp)
400033b8:	8fb1001c 	lw	s1,28(sp)
400033bc:	8fb00018 	lw	s0,24(sp)
400033c0:	03e00008 	jr	ra
400033c4:	27bd0038 	addiu	sp,sp,56
400033c8:	8ec4f678 	lw	a0,-2440(s6)
400033cc:	0c0007ba 	jal	40001ee8 <hf_queue_count>
400033d0:	00008025 	move	s0,zero
400033d4:	1c400005 	bgtz	v0,400033ec <hf_kill+0x214>
400033d8:	00409825 	move	s3,v0
400033dc:	08000d43 	j	4000350c <hf_kill+0x334>
400033e0:	00000000 	nop
400033e4:	1213004b 	beq	s0,s3,40003514 <hf_kill+0x33c>
400033e8:	00000000 	nop
400033ec:	8ec4f678 	lw	a0,-2440(s6)
400033f0:	0c0007fd 	jal	40001ff4 <hf_queue_get>
400033f4:	02002825 	move	a1,s0
400033f8:	8e23f664 	lw	v1,-2460(s1)
400033fc:	1462fff9 	bne	v1,v0,400033e4 <hf_kill+0x20c>
40003400:	26100001 	addiu	s0,s0,1
40003404:	2610ffff 	addiu	s0,s0,-1
40003408:	1a00000a 	blez	s0,40003434 <hf_kill+0x25c>
4000340c:	00000000 	nop
40003410:	8ec4f678 	lw	a0,-2440(s6)
40003414:	2613ffff 	addiu	s3,s0,-1
40003418:	02002825 	move	a1,s0
4000341c:	0c000819 	jal	40002064 <hf_queue_swap>
40003420:	02603025 	move	a2,s3
40003424:	1440000d 	bnez	v0,4000345c <hf_kill+0x284>
40003428:	02608025 	move	s0,s3
4000342c:	1600fff8 	bnez	s0,40003410 <hf_kill+0x238>
40003430:	00000000 	nop
40003434:	0c0007e0 	jal	40001f80 <hf_queue_remhead>
40003438:	8ec4f678 	lw	a0,-2440(s6)
4000343c:	08000ccc 	j	40003330 <hf_kill+0x158>
40003440:	00000000 	nop
40003444:	0c000713 	jal	40001c4c <panic>
40003448:	2404000c 	li	a0,12
4000344c:	1600ffae 	bnez	s0,40003308 <hf_kill+0x130>
40003450:	8ec4f670 	lw	a0,-2448(s6)
40003454:	08000cca 	j	40003328 <hf_kill+0x150>
40003458:	00000000 	nop
4000345c:	0c000713 	jal	40001c4c <panic>
40003460:	2404000c 	li	a0,12
40003464:	1600ffea 	bnez	s0,40003410 <hf_kill+0x238>
40003468:	00000000 	nop
4000346c:	08000d0d 	j	40003434 <hf_kill+0x25c>
40003470:	00000000 	nop
40003474:	3c164008 	lui	s6,0x4008
40003478:	8ec4f67c 	lw	a0,-2436(s6)
4000347c:	0c0007ba 	jal	40001ee8 <hf_queue_count>
40003480:	00008025 	move	s0,zero
40003484:	1c400005 	bgtz	v0,4000349c <hf_kill+0x2c4>
40003488:	00409825 	move	s3,v0
4000348c:	08000d57 	j	4000355c <hf_kill+0x384>
40003490:	00000000 	nop
40003494:	12130033 	beq	s0,s3,40003564 <hf_kill+0x38c>
40003498:	00000000 	nop
4000349c:	8ec4f67c 	lw	a0,-2436(s6)
400034a0:	0c0007fd 	jal	40001ff4 <hf_queue_get>
400034a4:	02002825 	move	a1,s0
400034a8:	8e23f664 	lw	v1,-2460(s1)
400034ac:	1462fff9 	bne	v1,v0,40003494 <hf_kill+0x2bc>
400034b0:	26100001 	addiu	s0,s0,1
400034b4:	2610ffff 	addiu	s0,s0,-1
400034b8:	1a00000a 	blez	s0,400034e4 <hf_kill+0x30c>
400034bc:	00000000 	nop
400034c0:	8ec4f67c 	lw	a0,-2436(s6)
400034c4:	2613ffff 	addiu	s3,s0,-1
400034c8:	02002825 	move	a1,s0
400034cc:	0c000819 	jal	40002064 <hf_queue_swap>
400034d0:	02603025 	move	a2,s3
400034d4:	14400007 	bnez	v0,400034f4 <hf_kill+0x31c>
400034d8:	02608025 	move	s0,s3
400034dc:	1600fff8 	bnez	s0,400034c0 <hf_kill+0x2e8>
400034e0:	00000000 	nop
400034e4:	0c0007e0 	jal	40001f80 <hf_queue_remhead>
400034e8:	8ec4f67c 	lw	a0,-2436(s6)
400034ec:	08000ccc 	j	40003330 <hf_kill+0x158>
400034f0:	00000000 	nop
400034f4:	0c000713 	jal	40001c4c <panic>
400034f8:	2404000c 	li	a0,12
400034fc:	1600fff0 	bnez	s0,400034c0 <hf_kill+0x2e8>
40003500:	00000000 	nop
40003504:	08000d39 	j	400034e4 <hf_kill+0x30c>
40003508:	00000000 	nop
4000350c:	10400003 	beqz	v0,4000351c <hf_kill+0x344>
40003510:	00000000 	nop
40003514:	1613ffbc 	bne	s0,s3,40003408 <hf_kill+0x230>
40003518:	00000000 	nop
4000351c:	0c000713 	jal	40001c4c <panic>
40003520:	24040005 	li	a0,5
40003524:	08000d02 	j	40003408 <hf_kill+0x230>
40003528:	00000000 	nop
4000352c:	10400003 	beqz	v0,4000353c <hf_kill+0x364>
40003530:	3c044000 	lui	a0,0x4000
40003534:	1613ff72 	bne	s0,s3,40003300 <hf_kill+0x128>
40003538:	3c044000 	lui	a0,0x4000
4000353c:	24843fc0 	addiu	a0,a0,16320
40003540:	02002825 	move	a1,s0
40003544:	0c0002d0 	jal	40000b40 <kprintf>
40003548:	02603025 	move	a2,s3
4000354c:	0c000713 	jal	40001c4c <panic>
40003550:	2404000f 	li	a0,15
40003554:	08000cc0 	j	40003300 <hf_kill+0x128>
40003558:	00000000 	nop
4000355c:	10400003 	beqz	v0,4000356c <hf_kill+0x394>
40003560:	00000000 	nop
40003564:	1613ffd4 	bne	s0,s3,400034b8 <hf_kill+0x2e0>
40003568:	00000000 	nop
4000356c:	0c000713 	jal	40001c4c <panic>
40003570:	24040006 	li	a0,6
40003574:	08000d2e 	j	400034b8 <hf_kill+0x2e0>
40003578:	00000000 	nop
4000357c:	0c000082 	jal	40000208 <_interrupt_set>
40003580:	00000000 	nop
40003584:	0c000c01 	jal	40003004 <hf_yield>
40003588:	00000000 	nop
4000358c:	8fbf0034 	lw	ra,52(sp)
40003590:	8fb60030 	lw	s6,48(sp)
40003594:	8fb5002c 	lw	s5,44(sp)
40003598:	8fb40028 	lw	s4,40(sp)
4000359c:	8fb30024 	lw	s3,36(sp)
400035a0:	8fb20020 	lw	s2,32(sp)
400035a4:	8fb1001c 	lw	s1,28(sp)
400035a8:	8fb00018 	lw	s0,24(sp)
400035ac:	00001025 	move	v0,zero
400035b0:	03e00008 	jr	ra
400035b4:	27bd0038 	addiu	sp,sp,56
400035b8:	3c044000 	lui	a0,0x4000
400035bc:	0c0002d0 	jal	40000b40 <kprintf>
400035c0:	24843ee0 	addiu	a0,a0,16096
400035c4:	3c024008 	lui	v0,0x4008
400035c8:	9445f660 	lhu	a1,-2464(v0)
400035cc:	8fa40010 	lw	a0,16(sp)
400035d0:	000518c0 	sll	v1,a1,0x3
400035d4:	00051140 	sll	v0,a1,0x5
400035d8:	00621021 	addu	v0,v1,v0
400035dc:	00451023 	subu	v0,v0,a1
400035e0:	00021080 	sll	v0,v0,0x2
400035e4:	0282a021 	addu	s4,s4,v0
400035e8:	0c000082 	jal	40000208 <_interrupt_set>
400035ec:	ae34f664 	sw	s4,-2460(s1)
400035f0:	08000ce8 	j	400033a0 <hf_kill+0x1c8>
400035f4:	2402ff9c 	li	v0,-100
400035f8:	3c044000 	lui	a0,0x4000
400035fc:	0c0002d0 	jal	40000b40 <kprintf>
40003600:	24843f9c 	addiu	a0,a0,16284
40003604:	8fa40010 	lw	a0,16(sp)
40003608:	0c000082 	jal	40000208 <_interrupt_set>
4000360c:	00000000 	nop
40003610:	08000ce8 	j	400033a0 <hf_kill+0x1c8>
40003614:	2402ff9c 	li	v0,-100
